(dp1
S'id'
p2
(dp3
S'length'
p4
I512
sS'unique'
p5
I00
sS'sortable'
p6
I1
sS'sql'
p7
S'INTEGER PRIMARY KEY AUTOINCREMENT'
p8
sS'notnull'
p9
I00
sS'type'
p10
g2
ssS'license'
p11
(dp12
g4
I512
sg5
I00
sg6
I2
sg7
S'TEXT NOT NULL'
p13
sg9
I01
sg10
S'list:string'
p14
ssS'setuptime'
p15
(dp16
g4
I512
sg5
I00
sg6
I3
sg7
S'TIMESTAMP NOT NULL'
p17
sg9
I01
sg10
S'datetime'
p18
ss.