(dp1
S'output'
p2
S"<type 'exceptions.AttributeError'> 'NoneType' object has no attribute 'uri'"
p3
sS'layer'
p4
S'/home/python/P\xc3\xbablico/web2py/web2py/applications/repositorio/controllers/default.py'
p5
sS'code'
p6
S'#!/usr/bin/python\n# -*- coding: utf-8 -*-\n\n# from gluon.tools import Auth\n# auth = Auth(DAL(None))\n\nif session.auth and session.auth.user:\n    time_expire = 0\nelse:\n    time_expire = 300\n\n\n#@auth.requires_login()\n#@cache(request.env.path_info, time_expire=time_expire, cache_model=cache.ram)\ndef index():\n    #redirect(URL(\'home\', \'index\'))\n    from handlers.home import Home\n    home = Home([\'featured\', \'featured_members\', \'ads\', \'homeblocks\', \'articles\'])\n    home.context.left_sidebar_enabled = True\n    home.context.right_sidebar_enabled = True\n    home.context.header_enabled = True\n    home.context.toparea_enabled = True\n    return home.render("app/home")\n\n\ndef user():\n    redirect(CURL(\'person\', \'account\', args=request.args, vars=request.vars))\n\n\ndef download():\n    flnm = request.args(0)\n    if request.env.web2py_runtime_gae:\n        tbl, fld = flnm.split(\'.\')[:2]\n        from config import Config\n        config = Config()\n        config._db.define_table(tbl, Field(fld, "upload"), migrate=False)\n        return response.download(request, config._db)\n    else:\n        import os\n        response.stream(os.path.join(request.folder, \'uploads\', flnm))\n\n\ndef call():\n    """\n    exposes services. for example:\n    http://..../[app]/default/call/jsonrpc\n    decorate with @services.jsonrpc the functions to expose\n    supports xml, json, xmlrpc, jsonrpc, amfrpc, rss, csv\n    """\n    return service()\n\n\ndef data():\n    """\n    http://..../[app]/default/data/tables\n    http://..../[app]/default/data/create/[table]\n    http://..../[app]/default/data/read/[table]/[id]\n    http://..../[app]/default/data/update/[table]/[id]\n    http://..../[app]/default/data/delete/[table]/[id]\n    http://..../[app]/default/data/select/[table]\n    http://..../[app]/default/data/search/[table]\n    but URLs must be signed, i.e. linked with\n      A(\'table\',_href=URL(\'data/tables\',user_signature=True))\n    or with the signed load operator\n      LOAD(\'default\',\'data.load\',args=\'tables\',ajax=True,user_signature=True)\n    """\n    return dict(form=crud())\n\n\ndef boxsearch():\n    q = request.vars.searchword\n    q = q.replace("@", "")\n    q = q.replace(" ", "%")\n    # return DIV(\n    #     A("teste", _class="addname", title="testando"),\n    #     BR(),\n    #     _class="display_box",\n    #     _align="left"\n    # )\n\n    return XML("""\n<div class="display_box" align="left">\n\n<img src="user_img/srinivas.jpg" style="width:25px; float:left; margin-right:6px" />\n<a href="#" class=\'addname\' title=\'Srinivas&nbsp;Tamada\'>\n<b>s</b>riniva<b>s</b>&nbsp;Tamada </a><br/>\n<span style="font-size:9px; color:#999999">India</span></div>\n    """)\n\nresponse._vars=response._caller(index)\n'
p7
sS'snapshot'
p8
(dp9
S'exception'
p10
(dp11
S'__hash__'
p12
S"<method-wrapper '__hash__' of exceptions.AttributeError object>"
p13
sS'__setattr__'
p14
S"<method-wrapper '__setattr__' of exceptions.AttributeError object>"
p15
sS'__reduce_ex__'
p16
S'<built-in method __reduce_ex__ of exceptions.AttributeError object>'
p17
sS'__getslice__'
p18
S"<method-wrapper '__getslice__' of exceptions.AttributeError object>"
p19
sS'__getitem__'
p20
S"<method-wrapper '__getitem__' of exceptions.AttributeError object>"
p21
sS'__setstate__'
p22
S'<built-in method __setstate__ of exceptions.AttributeError object>'
p23
sS'__reduce__'
p24
S'<built-in method __reduce__ of exceptions.AttributeError object>'
p25
sS'__str__'
p26
S"<method-wrapper '__str__' of exceptions.AttributeError object>"
p27
sS'__format__'
p28
S'<built-in method __format__ of exceptions.AttributeError object>'
p29
sS'__getattribute__'
p30
S"<method-wrapper '__getattribute__' of exceptions.AttributeError object>"
p31
sS'__class__'
p32
S"<type 'exceptions.AttributeError'>"
p33
sS'__unicode__'
p34
S'<built-in method __unicode__ of exceptions.AttributeError object>'
p35
sS'__delattr__'
p36
S"<method-wrapper '__delattr__' of exceptions.AttributeError object>"
p37
sS'__subclasshook__'
p38
S'<built-in method __subclasshook__ of type object>'
p39
sS'__repr__'
p40
S"<method-wrapper '__repr__' of exceptions.AttributeError object>"
p41
sS'args'
p42
S'("\'NoneType\' object has no attribute \'uri\'",)'
p43
sS'__dict__'
p44
S'{}'
p45
sS'__sizeof__'
p46
S'<built-in method __sizeof__ of exceptions.AttributeError object>'
p47
sS'__doc__'
p48
S"'Attribute not found.'"
p49
sS'__init__'
p50
S"<method-wrapper '__init__' of exceptions.AttributeError object>"
p51
sS'__new__'
p52
S'<built-in method __new__ of type object>'
p53
ssS'evalue'
p54
S"'NoneType' object has no attribute 'uri'"
p55
sS'request'
p56
ccopy_reg
_reconstructor
p57
(cgluon.html
BEAUTIFY
p58
c__builtin__
object
p59
NtRp60
(dp61
S'attributes'
p62
(dp63
sS'components'
p64
(lp65
g57
(cgluon.html
TABLE
p66
g59
NtRp67
(dp68
g62
(dp69
S'level'
p70
I5
ssS'parent'
p71
Nsg64
(lp72
g57
(cgluon.html
TR
p73
g59
NtRp74
(dp75
g62
(dp76
sg71
g67
sg64
(lp77
g57
(cgluon.html
TD
p78
g59
NtRp79
(dp80
g62
(dp81
S'_style'
p82
S'font-weight:bold;vertical-align:top'
p83
ssg71
g74
sg64
(lp84
S'ajax'
p85
asbag57
(g78
g59
NtRp86
(dp87
g62
(dp88
S'_valign'
p89
S'top'
p90
ssg71
g74
sg64
(lp91
S':'
asbag57
(g78
g59
NtRp92
(dp93
g62
(dp94
sg71
g74
sg64
(lp95
g57
(g58
g59
NtRp96
(dp97
g62
(dp98
g70
I5
ssg71
g92
sg64
(lp99
S'False'
p100
asbasbasbag57
(g73
g59
NtRp101
(dp102
g62
(dp103
sg71
g67
sg64
(lp104
g57
(g78
g59
NtRp105
(dp106
g62
(dp107
g82
g83
ssg71
g101
sg64
(lp108
S'application'
p109
asbag57
(g78
g59
NtRp110
(dp111
g62
(dp112
g89
g90
ssg71
g101
sg64
(lp113
S':'
asbag57
(g78
g59
NtRp114
(dp115
g62
(dp116
sg71
g101
sg64
(lp117
g57
(g58
g59
NtRp118
(dp119
g62
(dp120
g70
I5
ssg71
g114
sg64
(lp121
S'repositorio'
p122
asbasbasbag57
(g73
g59
NtRp123
(dp124
g62
(dp125
sg71
g67
sg64
(lp126
g57
(g78
g59
NtRp127
(dp128
g62
(dp129
g82
g83
ssg71
g123
sg64
(lp130
g42
asbag57
(g78
g59
NtRp131
(dp132
g62
(dp133
g89
g90
ssg71
g123
sg64
(lp134
S':'
asbag57
(g78
g59
NtRp135
(dp136
g62
(dp137
sg71
g123
sg64
(lp138
g57
(g58
g59
NtRp139
(dp140
g62
(dp141
g70
I5
ssg71
g135
sg64
(lp142
g57
(g66
g59
NtRp143
(dp144
g62
(dp145
g70
I4
ssg71
Nsg64
(lp146
sbasbasbasbag57
(g73
g59
NtRp147
(dp148
g62
(dp149
sg71
g67
sg64
(lp150
g57
(g78
g59
NtRp151
(dp152
g62
(dp153
g82
g83
ssg71
g147
sg64
(lp154
S'body'
p155
asbag57
(g78
g59
NtRp156
(dp157
g62
(dp158
g89
g90
ssg71
g147
sg64
(lp159
S':'
asbag57
(g78
g59
NtRp160
(dp161
g62
(dp162
sg71
g147
sg64
(lp163
g57
(g58
g59
NtRp164
(dp165
g62
(dp166
g70
I5
ssg71
g160
sg64
(lp167
S'<cStringIO.StringO object at 0xaf406f60>'
p168
asbasbasbag57
(g73
g59
NtRp169
(dp170
g62
(dp171
sg71
g67
sg64
(lp172
g57
(g78
g59
NtRp173
(dp174
g62
(dp175
g82
g83
ssg71
g169
sg64
(lp176
S'cid'
p177
asbag57
(g78
g59
NtRp178
(dp179
g62
(dp180
g89
g90
ssg71
g169
sg64
(lp181
S':'
asbag57
(g78
g59
NtRp182
(dp183
g62
(dp184
sg71
g169
sg64
(lp185
g57
(g58
g59
NtRp186
(dp187
g62
(dp188
g70
I5
ssg71
g182
sg64
(lp189
S'None'
p190
asbasbasbag57
(g73
g59
NtRp191
(dp192
g62
(dp193
sg71
g67
sg64
(lp194
g57
(g78
g59
NtRp195
(dp196
g62
(dp197
g82
g83
ssg71
g191
sg64
(lp198
S'client'
p199
asbag57
(g78
g59
NtRp200
(dp201
g62
(dp202
g89
g90
ssg71
g191
sg64
(lp203
S':'
asbag57
(g78
g59
NtRp204
(dp205
g62
(dp206
sg71
g191
sg64
(lp207
g57
(g58
g59
NtRp208
(dp209
g62
(dp210
g70
I5
ssg71
g204
sg64
(lp211
S'127.0.0.1'
p212
asbasbasbag57
(g73
g59
NtRp213
(dp214
g62
(dp215
sg71
g67
sg64
(lp216
g57
(g78
g59
NtRp217
(dp218
g62
(dp219
g82
g83
ssg71
g213
sg64
(lp220
S'controller'
p221
asbag57
(g78
g59
NtRp222
(dp223
g62
(dp224
g89
g90
ssg71
g213
sg64
(lp225
S':'
asbag57
(g78
g59
NtRp226
(dp227
g62
(dp228
sg71
g213
sg64
(lp229
g57
(g58
g59
NtRp230
(dp231
g62
(dp232
g70
I5
ssg71
g226
sg64
(lp233
S'default'
p234
asbasbasbag57
(g73
g59
NtRp235
(dp236
g62
(dp237
sg71
g67
sg64
(lp238
g57
(g78
g59
NtRp239
(dp240
g62
(dp241
g82
g83
ssg71
g235
sg64
(lp242
S'cookies'
p243
asbag57
(g78
g59
NtRp244
(dp245
g62
(dp246
g89
g90
ssg71
g235
sg64
(lp247
S':'
asbag57
(g78
g59
NtRp248
(dp249
g62
(dp250
sg71
g235
sg64
(lp251
g57
(g58
g59
NtRp252
(dp253
g62
(dp254
g70
I5
ssg71
g248
sg64
(lp255
g57
(g66
g59
NtRp256
(dp257
g62
(dp258
g70
I4
ssg71
Nsg64
(lp259
g57
(g73
g59
NtRp260
(dp261
g62
(dp262
sg71
g256
sg64
(lp263
g57
(g78
g59
NtRp264
(dp265
g62
(dp266
g82
g83
ssg71
g260
sg64
(lp267
S'csrftoken'
p268
asbag57
(g78
g59
NtRp269
(dp270
g62
(dp271
g89
g90
ssg71
g260
sg64
(lp272
S':'
asbag57
(g78
g59
NtRp273
(dp274
g62
(dp275
sg71
g260
sg64
(lp276
g57
(g58
g59
NtRp277
(dp278
g62
(dp279
g70
I4
ssg71
g273
sg64
(lp280
S'mA3uPbrpUrk0p93dhSNtcRXxuitlxH4w'
p281
ag57
(g66
g59
NtRp282
(dp283
g62
(dp284
g70
I3
ssg71
Nsg64
(lp285
g57
(g73
g59
NtRp286
(dp287
g62
(dp288
sg71
g282
sg64
(lp289
g57
(g78
g59
NtRp290
(dp291
g62
(dp292
g82
g83
ssg71
g286
sg64
(lp293
S'comment'
p294
asbag57
(g78
g59
NtRp295
(dp296
g62
(dp297
g89
g90
ssg71
g286
sg64
(lp298
S':'
asbag57
(g78
g59
NtRp299
(dp300
g62
(dp301
sg71
g286
sg64
(lp302
g57
(g58
g59
NtRp303
(dp304
g62
(dp305
g70
I3
ssg71
g299
sg64
(lp306
S''
asbasbasbag57
(g73
g59
NtRp307
(dp308
g62
(dp309
sg71
g282
sg64
(lp310
g57
(g78
g59
NtRp311
(dp312
g62
(dp313
g82
g83
ssg71
g307
sg64
(lp314
S'domain'
p315
asbag57
(g78
g59
NtRp316
(dp317
g62
(dp318
g89
g90
ssg71
g307
sg64
(lp319
S':'
asbag57
(g78
g59
NtRp320
(dp321
g62
(dp322
sg71
g307
sg64
(lp323
g57
(g58
g59
NtRp324
(dp325
g62
(dp326
g70
I3
ssg71
g320
sg64
(lp327
S''
asbasbasbag57
(g73
g59
NtRp328
(dp329
g62
(dp330
sg71
g282
sg64
(lp331
g57
(g78
g59
NtRp332
(dp333
g62
(dp334
g82
g83
ssg71
g328
sg64
(lp335
S'expires'
p336
asbag57
(g78
g59
NtRp337
(dp338
g62
(dp339
g89
g90
ssg71
g328
sg64
(lp340
S':'
asbag57
(g78
g59
NtRp341
(dp342
g62
(dp343
sg71
g328
sg64
(lp344
g57
(g58
g59
NtRp345
(dp346
g62
(dp347
g70
I3
ssg71
g341
sg64
(lp348
S''
asbasbasbag57
(g73
g59
NtRp349
(dp350
g62
(dp351
sg71
g282
sg64
(lp352
g57
(g78
g59
NtRp353
(dp354
g62
(dp355
g82
g83
ssg71
g349
sg64
(lp356
S'httponly'
p357
asbag57
(g78
g59
NtRp358
(dp359
g62
(dp360
g89
g90
ssg71
g349
sg64
(lp361
S':'
asbag57
(g78
g59
NtRp362
(dp363
g62
(dp364
sg71
g349
sg64
(lp365
g57
(g58
g59
NtRp366
(dp367
g62
(dp368
g70
I3
ssg71
g362
sg64
(lp369
S''
asbasbasbag57
(g73
g59
NtRp370
(dp371
g62
(dp372
sg71
g282
sg64
(lp373
g57
(g78
g59
NtRp374
(dp375
g62
(dp376
g82
g83
ssg71
g370
sg64
(lp377
S'max-age'
p378
asbag57
(g78
g59
NtRp379
(dp380
g62
(dp381
g89
g90
ssg71
g370
sg64
(lp382
S':'
asbag57
(g78
g59
NtRp383
(dp384
g62
(dp385
sg71
g370
sg64
(lp386
g57
(g58
g59
NtRp387
(dp388
g62
(dp389
g70
I3
ssg71
g383
sg64
(lp390
S''
asbasbasbag57
(g73
g59
NtRp391
(dp392
g62
(dp393
sg71
g282
sg64
(lp394
g57
(g78
g59
NtRp395
(dp396
g62
(dp397
g82
g83
ssg71
g391
sg64
(lp398
S'path'
p399
asbag57
(g78
g59
NtRp400
(dp401
g62
(dp402
g89
g90
ssg71
g391
sg64
(lp403
S':'
asbag57
(g78
g59
NtRp404
(dp405
g62
(dp406
sg71
g391
sg64
(lp407
g57
(g58
g59
NtRp408
(dp409
g62
(dp410
g70
I3
ssg71
g404
sg64
(lp411
S''
asbasbasbag57
(g73
g59
NtRp412
(dp413
g62
(dp414
sg71
g282
sg64
(lp415
g57
(g78
g59
NtRp416
(dp417
g62
(dp418
g82
g83
ssg71
g412
sg64
(lp419
S'secure'
p420
asbag57
(g78
g59
NtRp421
(dp422
g62
(dp423
g89
g90
ssg71
g412
sg64
(lp424
S':'
asbag57
(g78
g59
NtRp425
(dp426
g62
(dp427
sg71
g412
sg64
(lp428
g57
(g58
g59
NtRp429
(dp430
g62
(dp431
g70
I3
ssg71
g425
sg64
(lp432
S''
asbasbasbag57
(g73
g59
NtRp433
(dp434
g62
(dp435
sg71
g282
sg64
(lp436
g57
(g78
g59
NtRp437
(dp438
g62
(dp439
g82
g83
ssg71
g433
sg64
(lp440
S'version'
p441
asbag57
(g78
g59
NtRp442
(dp443
g62
(dp444
g89
g90
ssg71
g433
sg64
(lp445
S':'
asbag57
(g78
g59
NtRp446
(dp447
g62
(dp448
sg71
g433
sg64
(lp449
g57
(g58
g59
NtRp450
(dp451
g62
(dp452
g70
I3
ssg71
g446
sg64
(lp453
S''
asbasbasbasbasbasbasbag57
(g73
g59
NtRp454
(dp455
g62
(dp456
sg71
g256
sg64
(lp457
g57
(g78
g59
NtRp458
(dp459
g62
(dp460
g82
g83
ssg71
g454
sg64
(lp461
S'devicePixelRatio'
p462
asbag57
(g78
g59
NtRp463
(dp464
g62
(dp465
g89
g90
ssg71
g454
sg64
(lp466
S':'
asbag57
(g78
g59
NtRp467
(dp468
g62
(dp469
sg71
g454
sg64
(lp470
g57
(g58
g59
NtRp471
(dp472
g62
(dp473
g70
I4
ssg71
g467
sg64
(lp474
S'1'
ag57
(g66
g59
NtRp475
(dp476
g62
(dp477
g70
I3
ssg71
Nsg64
(lp478
g57
(g73
g59
NtRp479
(dp480
g62
(dp481
sg71
g475
sg64
(lp482
g57
(g78
g59
NtRp483
(dp484
g62
(dp485
g82
g83
ssg71
g479
sg64
(lp486
g294
asbag57
(g78
g59
NtRp487
(dp488
g62
(dp489
g89
g90
ssg71
g479
sg64
(lp490
S':'
asbag57
(g78
g59
NtRp491
(dp492
g62
(dp493
sg71
g479
sg64
(lp494
g57
(g58
g59
NtRp495
(dp496
g62
(dp497
g70
I3
ssg71
g491
sg64
(lp498
S''
asbasbasbag57
(g73
g59
NtRp499
(dp500
g62
(dp501
sg71
g475
sg64
(lp502
g57
(g78
g59
NtRp503
(dp504
g62
(dp505
g82
g83
ssg71
g499
sg64
(lp506
g315
asbag57
(g78
g59
NtRp507
(dp508
g62
(dp509
g89
g90
ssg71
g499
sg64
(lp510
S':'
asbag57
(g78
g59
NtRp511
(dp512
g62
(dp513
sg71
g499
sg64
(lp514
g57
(g58
g59
NtRp515
(dp516
g62
(dp517
g70
I3
ssg71
g511
sg64
(lp518
S''
asbasbasbag57
(g73
g59
NtRp519
(dp520
g62
(dp521
sg71
g475
sg64
(lp522
g57
(g78
g59
NtRp523
(dp524
g62
(dp525
g82
g83
ssg71
g519
sg64
(lp526
g336
asbag57
(g78
g59
NtRp527
(dp528
g62
(dp529
g89
g90
ssg71
g519
sg64
(lp530
S':'
asbag57
(g78
g59
NtRp531
(dp532
g62
(dp533
sg71
g519
sg64
(lp534
g57
(g58
g59
NtRp535
(dp536
g62
(dp537
g70
I3
ssg71
g531
sg64
(lp538
S''
asbasbasbag57
(g73
g59
NtRp539
(dp540
g62
(dp541
sg71
g475
sg64
(lp542
g57
(g78
g59
NtRp543
(dp544
g62
(dp545
g82
g83
ssg71
g539
sg64
(lp546
g357
asbag57
(g78
g59
NtRp547
(dp548
g62
(dp549
g89
g90
ssg71
g539
sg64
(lp550
S':'
asbag57
(g78
g59
NtRp551
(dp552
g62
(dp553
sg71
g539
sg64
(lp554
g57
(g58
g59
NtRp555
(dp556
g62
(dp557
g70
I3
ssg71
g551
sg64
(lp558
S''
asbasbasbag57
(g73
g59
NtRp559
(dp560
g62
(dp561
sg71
g475
sg64
(lp562
g57
(g78
g59
NtRp563
(dp564
g62
(dp565
g82
g83
ssg71
g559
sg64
(lp566
g378
asbag57
(g78
g59
NtRp567
(dp568
g62
(dp569
g89
g90
ssg71
g559
sg64
(lp570
S':'
asbag57
(g78
g59
NtRp571
(dp572
g62
(dp573
sg71
g559
sg64
(lp574
g57
(g58
g59
NtRp575
(dp576
g62
(dp577
g70
I3
ssg71
g571
sg64
(lp578
S''
asbasbasbag57
(g73
g59
NtRp579
(dp580
g62
(dp581
sg71
g475
sg64
(lp582
g57
(g78
g59
NtRp583
(dp584
g62
(dp585
g82
g83
ssg71
g579
sg64
(lp586
g399
asbag57
(g78
g59
NtRp587
(dp588
g62
(dp589
g89
g90
ssg71
g579
sg64
(lp590
S':'
asbag57
(g78
g59
NtRp591
(dp592
g62
(dp593
sg71
g579
sg64
(lp594
g57
(g58
g59
NtRp595
(dp596
g62
(dp597
g70
I3
ssg71
g591
sg64
(lp598
S''
asbasbasbag57
(g73
g59
NtRp599
(dp600
g62
(dp601
sg71
g475
sg64
(lp602
g57
(g78
g59
NtRp603
(dp604
g62
(dp605
g82
g83
ssg71
g599
sg64
(lp606
g420
asbag57
(g78
g59
NtRp607
(dp608
g62
(dp609
g89
g90
ssg71
g599
sg64
(lp610
S':'
asbag57
(g78
g59
NtRp611
(dp612
g62
(dp613
sg71
g599
sg64
(lp614
g57
(g58
g59
NtRp615
(dp616
g62
(dp617
g70
I3
ssg71
g611
sg64
(lp618
S''
asbasbasbag57
(g73
g59
NtRp619
(dp620
g62
(dp621
sg71
g475
sg64
(lp622
g57
(g78
g59
NtRp623
(dp624
g62
(dp625
g82
g83
ssg71
g619
sg64
(lp626
g441
asbag57
(g78
g59
NtRp627
(dp628
g62
(dp629
g89
g90
ssg71
g619
sg64
(lp630
S':'
asbag57
(g78
g59
NtRp631
(dp632
g62
(dp633
sg71
g619
sg64
(lp634
g57
(g58
g59
NtRp635
(dp636
g62
(dp637
g70
I3
ssg71
g631
sg64
(lp638
S''
asbasbasbasbasbasbasbag57
(g73
g59
NtRp639
(dp640
g62
(dp641
sg71
g256
sg64
(lp642
g57
(g78
g59
NtRp643
(dp644
g62
(dp645
g82
g83
ssg71
g639
sg64
(lp646
S'heatmaps_g2g_66475898'
p647
asbag57
(g78
g59
NtRp648
(dp649
g62
(dp650
g89
g90
ssg71
g639
sg64
(lp651
S':'
asbag57
(g78
g59
NtRp652
(dp653
g62
(dp654
sg71
g639
sg64
(lp655
g57
(g58
g59
NtRp656
(dp657
g62
(dp658
g70
I4
ssg71
g652
sg64
(lp659
S'no'
p660
ag57
(g66
g59
NtRp661
(dp662
g62
(dp663
g70
I3
ssg71
Nsg64
(lp664
g57
(g73
g59
NtRp665
(dp666
g62
(dp667
sg71
g661
sg64
(lp668
g57
(g78
g59
NtRp669
(dp670
g62
(dp671
g82
g83
ssg71
g665
sg64
(lp672
g294
asbag57
(g78
g59
NtRp673
(dp674
g62
(dp675
g89
g90
ssg71
g665
sg64
(lp676
S':'
asbag57
(g78
g59
NtRp677
(dp678
g62
(dp679
sg71
g665
sg64
(lp680
g57
(g58
g59
NtRp681
(dp682
g62
(dp683
g70
I3
ssg71
g677
sg64
(lp684
S''
asbasbasbag57
(g73
g59
NtRp685
(dp686
g62
(dp687
sg71
g661
sg64
(lp688
g57
(g78
g59
NtRp689
(dp690
g62
(dp691
g82
g83
ssg71
g685
sg64
(lp692
g315
asbag57
(g78
g59
NtRp693
(dp694
g62
(dp695
g89
g90
ssg71
g685
sg64
(lp696
S':'
asbag57
(g78
g59
NtRp697
(dp698
g62
(dp699
sg71
g685
sg64
(lp700
g57
(g58
g59
NtRp701
(dp702
g62
(dp703
g70
I3
ssg71
g697
sg64
(lp704
S''
asbasbasbag57
(g73
g59
NtRp705
(dp706
g62
(dp707
sg71
g661
sg64
(lp708
g57
(g78
g59
NtRp709
(dp710
g62
(dp711
g82
g83
ssg71
g705
sg64
(lp712
g336
asbag57
(g78
g59
NtRp713
(dp714
g62
(dp715
g89
g90
ssg71
g705
sg64
(lp716
S':'
asbag57
(g78
g59
NtRp717
(dp718
g62
(dp719
sg71
g705
sg64
(lp720
g57
(g58
g59
NtRp721
(dp722
g62
(dp723
g70
I3
ssg71
g717
sg64
(lp724
S''
asbasbasbag57
(g73
g59
NtRp725
(dp726
g62
(dp727
sg71
g661
sg64
(lp728
g57
(g78
g59
NtRp729
(dp730
g62
(dp731
g82
g83
ssg71
g725
sg64
(lp732
g357
asbag57
(g78
g59
NtRp733
(dp734
g62
(dp735
g89
g90
ssg71
g725
sg64
(lp736
S':'
asbag57
(g78
g59
NtRp737
(dp738
g62
(dp739
sg71
g725
sg64
(lp740
g57
(g58
g59
NtRp741
(dp742
g62
(dp743
g70
I3
ssg71
g737
sg64
(lp744
S''
asbasbasbag57
(g73
g59
NtRp745
(dp746
g62
(dp747
sg71
g661
sg64
(lp748
g57
(g78
g59
NtRp749
(dp750
g62
(dp751
g82
g83
ssg71
g745
sg64
(lp752
g378
asbag57
(g78
g59
NtRp753
(dp754
g62
(dp755
g89
g90
ssg71
g745
sg64
(lp756
S':'
asbag57
(g78
g59
NtRp757
(dp758
g62
(dp759
sg71
g745
sg64
(lp760
g57
(g58
g59
NtRp761
(dp762
g62
(dp763
g70
I3
ssg71
g757
sg64
(lp764
S''
asbasbasbag57
(g73
g59
NtRp765
(dp766
g62
(dp767
sg71
g661
sg64
(lp768
g57
(g78
g59
NtRp769
(dp770
g62
(dp771
g82
g83
ssg71
g765
sg64
(lp772
g399
asbag57
(g78
g59
NtRp773
(dp774
g62
(dp775
g89
g90
ssg71
g765
sg64
(lp776
S':'
asbag57
(g78
g59
NtRp777
(dp778
g62
(dp779
sg71
g765
sg64
(lp780
g57
(g58
g59
NtRp781
(dp782
g62
(dp783
g70
I3
ssg71
g777
sg64
(lp784
S''
asbasbasbag57
(g73
g59
NtRp785
(dp786
g62
(dp787
sg71
g661
sg64
(lp788
g57
(g78
g59
NtRp789
(dp790
g62
(dp791
g82
g83
ssg71
g785
sg64
(lp792
g420
asbag57
(g78
g59
NtRp793
(dp794
g62
(dp795
g89
g90
ssg71
g785
sg64
(lp796
S':'
asbag57
(g78
g59
NtRp797
(dp798
g62
(dp799
sg71
g785
sg64
(lp800
g57
(g58
g59
NtRp801
(dp802
g62
(dp803
g70
I3
ssg71
g797
sg64
(lp804
S''
asbasbasbag57
(g73
g59
NtRp805
(dp806
g62
(dp807
sg71
g661
sg64
(lp808
g57
(g78
g59
NtRp809
(dp810
g62
(dp811
g82
g83
ssg71
g805
sg64
(lp812
g441
asbag57
(g78
g59
NtRp813
(dp814
g62
(dp815
g89
g90
ssg71
g805
sg64
(lp816
S':'
asbag57
(g78
g59
NtRp817
(dp818
g62
(dp819
sg71
g805
sg64
(lp820
g57
(g58
g59
NtRp821
(dp822
g62
(dp823
g70
I3
ssg71
g817
sg64
(lp824
S''
asbasbasbasbasbasbasbag57
(g73
g59
NtRp825
(dp826
g62
(dp827
sg71
g256
sg64
(lp828
g57
(g78
g59
NtRp829
(dp830
g62
(dp831
g82
g83
ssg71
g825
sg64
(lp832
S'session_id_admin'
p833
asbag57
(g78
g59
NtRp834
(dp835
g62
(dp836
g89
g90
ssg71
g825
sg64
(lp837
S':'
asbag57
(g78
g59
NtRp838
(dp839
g62
(dp840
sg71
g825
sg64
(lp841
g57
(g58
g59
NtRp842
(dp843
g62
(dp844
g70
I4
ssg71
g838
sg64
(lp845
S'127.0.0.1-5d36a716-a599-45d4-9294-95f7c6cb7eeb'
p846
ag57
(g66
g59
NtRp847
(dp848
g62
(dp849
g70
I3
ssg71
Nsg64
(lp850
g57
(g73
g59
NtRp851
(dp852
g62
(dp853
sg71
g847
sg64
(lp854
g57
(g78
g59
NtRp855
(dp856
g62
(dp857
g82
g83
ssg71
g851
sg64
(lp858
g294
asbag57
(g78
g59
NtRp859
(dp860
g62
(dp861
g89
g90
ssg71
g851
sg64
(lp862
S':'
asbag57
(g78
g59
NtRp863
(dp864
g62
(dp865
sg71
g851
sg64
(lp866
g57
(g58
g59
NtRp867
(dp868
g62
(dp869
g70
I3
ssg71
g863
sg64
(lp870
S''
asbasbasbag57
(g73
g59
NtRp871
(dp872
g62
(dp873
sg71
g847
sg64
(lp874
g57
(g78
g59
NtRp875
(dp876
g62
(dp877
g82
g83
ssg71
g871
sg64
(lp878
g315
asbag57
(g78
g59
NtRp879
(dp880
g62
(dp881
g89
g90
ssg71
g871
sg64
(lp882
S':'
asbag57
(g78
g59
NtRp883
(dp884
g62
(dp885
sg71
g871
sg64
(lp886
g57
(g58
g59
NtRp887
(dp888
g62
(dp889
g70
I3
ssg71
g883
sg64
(lp890
S''
asbasbasbag57
(g73
g59
NtRp891
(dp892
g62
(dp893
sg71
g847
sg64
(lp894
g57
(g78
g59
NtRp895
(dp896
g62
(dp897
g82
g83
ssg71
g891
sg64
(lp898
g336
asbag57
(g78
g59
NtRp899
(dp900
g62
(dp901
g89
g90
ssg71
g891
sg64
(lp902
S':'
asbag57
(g78
g59
NtRp903
(dp904
g62
(dp905
sg71
g891
sg64
(lp906
g57
(g58
g59
NtRp907
(dp908
g62
(dp909
g70
I3
ssg71
g903
sg64
(lp910
S''
asbasbasbag57
(g73
g59
NtRp911
(dp912
g62
(dp913
sg71
g847
sg64
(lp914
g57
(g78
g59
NtRp915
(dp916
g62
(dp917
g82
g83
ssg71
g911
sg64
(lp918
g357
asbag57
(g78
g59
NtRp919
(dp920
g62
(dp921
g89
g90
ssg71
g911
sg64
(lp922
S':'
asbag57
(g78
g59
NtRp923
(dp924
g62
(dp925
sg71
g911
sg64
(lp926
g57
(g58
g59
NtRp927
(dp928
g62
(dp929
g70
I3
ssg71
g923
sg64
(lp930
S''
asbasbasbag57
(g73
g59
NtRp931
(dp932
g62
(dp933
sg71
g847
sg64
(lp934
g57
(g78
g59
NtRp935
(dp936
g62
(dp937
g82
g83
ssg71
g931
sg64
(lp938
g378
asbag57
(g78
g59
NtRp939
(dp940
g62
(dp941
g89
g90
ssg71
g931
sg64
(lp942
S':'
asbag57
(g78
g59
NtRp943
(dp944
g62
(dp945
sg71
g931
sg64
(lp946
g57
(g58
g59
NtRp947
(dp948
g62
(dp949
g70
I3
ssg71
g943
sg64
(lp950
S''
asbasbasbag57
(g73
g59
NtRp951
(dp952
g62
(dp953
sg71
g847
sg64
(lp954
g57
(g78
g59
NtRp955
(dp956
g62
(dp957
g82
g83
ssg71
g951
sg64
(lp958
g399
asbag57
(g78
g59
NtRp959
(dp960
g62
(dp961
g89
g90
ssg71
g951
sg64
(lp962
S':'
asbag57
(g78
g59
NtRp963
(dp964
g62
(dp965
sg71
g951
sg64
(lp966
g57
(g58
g59
NtRp967
(dp968
g62
(dp969
g70
I3
ssg71
g963
sg64
(lp970
S''
asbasbasbag57
(g73
g59
NtRp971
(dp972
g62
(dp973
sg71
g847
sg64
(lp974
g57
(g78
g59
NtRp975
(dp976
g62
(dp977
g82
g83
ssg71
g971
sg64
(lp978
g420
asbag57
(g78
g59
NtRp979
(dp980
g62
(dp981
g89
g90
ssg71
g971
sg64
(lp982
S':'
asbag57
(g78
g59
NtRp983
(dp984
g62
(dp985
sg71
g971
sg64
(lp986
g57
(g58
g59
NtRp987
(dp988
g62
(dp989
g70
I3
ssg71
g983
sg64
(lp990
S''
asbasbasbag57
(g73
g59
NtRp991
(dp992
g62
(dp993
sg71
g847
sg64
(lp994
g57
(g78
g59
NtRp995
(dp996
g62
(dp997
g82
g83
ssg71
g991
sg64
(lp998
g441
asbag57
(g78
g59
NtRp999
(dp1000
g62
(dp1001
g89
g90
ssg71
g991
sg64
(lp1002
S':'
asbag57
(g78
g59
NtRp1003
(dp1004
g62
(dp1005
sg71
g991
sg64
(lp1006
g57
(g58
g59
NtRp1007
(dp1008
g62
(dp1009
g70
I3
ssg71
g1003
sg64
(lp1010
S''
asbasbasbasbasbasbasbag57
(g73
g59
NtRp1011
(dp1012
g62
(dp1013
sg71
g256
sg64
(lp1014
g57
(g78
g59
NtRp1015
(dp1016
g62
(dp1017
g82
g83
ssg71
g1011
sg64
(lp1018
S'session_id_cms'
p1019
asbag57
(g78
g59
NtRp1020
(dp1021
g62
(dp1022
g89
g90
ssg71
g1011
sg64
(lp1023
S':'
asbag57
(g78
g59
NtRp1024
(dp1025
g62
(dp1026
sg71
g1011
sg64
(lp1027
g57
(g58
g59
NtRp1028
(dp1029
g62
(dp1030
g70
I4
ssg71
g1024
sg64
(lp1031
S'127.0.0.1-2895d956-694f-42df-af47-270be9897726'
p1032
ag57
(g66
g59
NtRp1033
(dp1034
g62
(dp1035
g70
I3
ssg71
Nsg64
(lp1036
g57
(g73
g59
NtRp1037
(dp1038
g62
(dp1039
sg71
g1033
sg64
(lp1040
g57
(g78
g59
NtRp1041
(dp1042
g62
(dp1043
g82
g83
ssg71
g1037
sg64
(lp1044
g294
asbag57
(g78
g59
NtRp1045
(dp1046
g62
(dp1047
g89
g90
ssg71
g1037
sg64
(lp1048
S':'
asbag57
(g78
g59
NtRp1049
(dp1050
g62
(dp1051
sg71
g1037
sg64
(lp1052
g57
(g58
g59
NtRp1053
(dp1054
g62
(dp1055
g70
I3
ssg71
g1049
sg64
(lp1056
S''
asbasbasbag57
(g73
g59
NtRp1057
(dp1058
g62
(dp1059
sg71
g1033
sg64
(lp1060
g57
(g78
g59
NtRp1061
(dp1062
g62
(dp1063
g82
g83
ssg71
g1057
sg64
(lp1064
g315
asbag57
(g78
g59
NtRp1065
(dp1066
g62
(dp1067
g89
g90
ssg71
g1057
sg64
(lp1068
S':'
asbag57
(g78
g59
NtRp1069
(dp1070
g62
(dp1071
sg71
g1057
sg64
(lp1072
g57
(g58
g59
NtRp1073
(dp1074
g62
(dp1075
g70
I3
ssg71
g1069
sg64
(lp1076
S''
asbasbasbag57
(g73
g59
NtRp1077
(dp1078
g62
(dp1079
sg71
g1033
sg64
(lp1080
g57
(g78
g59
NtRp1081
(dp1082
g62
(dp1083
g82
g83
ssg71
g1077
sg64
(lp1084
g336
asbag57
(g78
g59
NtRp1085
(dp1086
g62
(dp1087
g89
g90
ssg71
g1077
sg64
(lp1088
S':'
asbag57
(g78
g59
NtRp1089
(dp1090
g62
(dp1091
sg71
g1077
sg64
(lp1092
g57
(g58
g59
NtRp1093
(dp1094
g62
(dp1095
g70
I3
ssg71
g1089
sg64
(lp1096
S''
asbasbasbag57
(g73
g59
NtRp1097
(dp1098
g62
(dp1099
sg71
g1033
sg64
(lp1100
g57
(g78
g59
NtRp1101
(dp1102
g62
(dp1103
g82
g83
ssg71
g1097
sg64
(lp1104
g357
asbag57
(g78
g59
NtRp1105
(dp1106
g62
(dp1107
g89
g90
ssg71
g1097
sg64
(lp1108
S':'
asbag57
(g78
g59
NtRp1109
(dp1110
g62
(dp1111
sg71
g1097
sg64
(lp1112
g57
(g58
g59
NtRp1113
(dp1114
g62
(dp1115
g70
I3
ssg71
g1109
sg64
(lp1116
S''
asbasbasbag57
(g73
g59
NtRp1117
(dp1118
g62
(dp1119
sg71
g1033
sg64
(lp1120
g57
(g78
g59
NtRp1121
(dp1122
g62
(dp1123
g82
g83
ssg71
g1117
sg64
(lp1124
g378
asbag57
(g78
g59
NtRp1125
(dp1126
g62
(dp1127
g89
g90
ssg71
g1117
sg64
(lp1128
S':'
asbag57
(g78
g59
NtRp1129
(dp1130
g62
(dp1131
sg71
g1117
sg64
(lp1132
g57
(g58
g59
NtRp1133
(dp1134
g62
(dp1135
g70
I3
ssg71
g1129
sg64
(lp1136
S''
asbasbasbag57
(g73
g59
NtRp1137
(dp1138
g62
(dp1139
sg71
g1033
sg64
(lp1140
g57
(g78
g59
NtRp1141
(dp1142
g62
(dp1143
g82
g83
ssg71
g1137
sg64
(lp1144
g399
asbag57
(g78
g59
NtRp1145
(dp1146
g62
(dp1147
g89
g90
ssg71
g1137
sg64
(lp1148
S':'
asbag57
(g78
g59
NtRp1149
(dp1150
g62
(dp1151
sg71
g1137
sg64
(lp1152
g57
(g58
g59
NtRp1153
(dp1154
g62
(dp1155
g70
I3
ssg71
g1149
sg64
(lp1156
S''
asbasbasbag57
(g73
g59
NtRp1157
(dp1158
g62
(dp1159
sg71
g1033
sg64
(lp1160
g57
(g78
g59
NtRp1161
(dp1162
g62
(dp1163
g82
g83
ssg71
g1157
sg64
(lp1164
g420
asbag57
(g78
g59
NtRp1165
(dp1166
g62
(dp1167
g89
g90
ssg71
g1157
sg64
(lp1168
S':'
asbag57
(g78
g59
NtRp1169
(dp1170
g62
(dp1171
sg71
g1157
sg64
(lp1172
g57
(g58
g59
NtRp1173
(dp1174
g62
(dp1175
g70
I3
ssg71
g1169
sg64
(lp1176
S''
asbasbasbag57
(g73
g59
NtRp1177
(dp1178
g62
(dp1179
sg71
g1033
sg64
(lp1180
g57
(g78
g59
NtRp1181
(dp1182
g62
(dp1183
g82
g83
ssg71
g1177
sg64
(lp1184
g441
asbag57
(g78
g59
NtRp1185
(dp1186
g62
(dp1187
g89
g90
ssg71
g1177
sg64
(lp1188
S':'
asbag57
(g78
g59
NtRp1189
(dp1190
g62
(dp1191
sg71
g1177
sg64
(lp1192
g57
(g58
g59
NtRp1193
(dp1194
g62
(dp1195
g70
I3
ssg71
g1189
sg64
(lp1196
S''
asbasbasbasbasbasbasbag57
(g73
g59
NtRp1197
(dp1198
g62
(dp1199
sg71
g256
sg64
(lp1200
g57
(g78
g59
NtRp1201
(dp1202
g62
(dp1203
g82
g83
ssg71
g1197
sg64
(lp1204
S'viewport'
p1205
asbag57
(g78
g59
NtRp1206
(dp1207
g62
(dp1208
g89
g90
ssg71
g1197
sg64
(lp1209
S':'
asbag57
(g78
g59
NtRp1210
(dp1211
g62
(dp1212
sg71
g1197
sg64
(lp1213
g57
(g58
g59
NtRp1214
(dp1215
g62
(dp1216
g70
I4
ssg71
g1210
sg64
(lp1217
S'1350'
p1218
ag57
(g66
g59
NtRp1219
(dp1220
g62
(dp1221
g70
I3
ssg71
Nsg64
(lp1222
g57
(g73
g59
NtRp1223
(dp1224
g62
(dp1225
sg71
g1219
sg64
(lp1226
g57
(g78
g59
NtRp1227
(dp1228
g62
(dp1229
g82
g83
ssg71
g1223
sg64
(lp1230
g294
asbag57
(g78
g59
NtRp1231
(dp1232
g62
(dp1233
g89
g90
ssg71
g1223
sg64
(lp1234
S':'
asbag57
(g78
g59
NtRp1235
(dp1236
g62
(dp1237
sg71
g1223
sg64
(lp1238
g57
(g58
g59
NtRp1239
(dp1240
g62
(dp1241
g70
I3
ssg71
g1235
sg64
(lp1242
S''
asbasbasbag57
(g73
g59
NtRp1243
(dp1244
g62
(dp1245
sg71
g1219
sg64
(lp1246
g57
(g78
g59
NtRp1247
(dp1248
g62
(dp1249
g82
g83
ssg71
g1243
sg64
(lp1250
g315
asbag57
(g78
g59
NtRp1251
(dp1252
g62
(dp1253
g89
g90
ssg71
g1243
sg64
(lp1254
S':'
asbag57
(g78
g59
NtRp1255
(dp1256
g62
(dp1257
sg71
g1243
sg64
(lp1258
g57
(g58
g59
NtRp1259
(dp1260
g62
(dp1261
g70
I3
ssg71
g1255
sg64
(lp1262
S''
asbasbasbag57
(g73
g59
NtRp1263
(dp1264
g62
(dp1265
sg71
g1219
sg64
(lp1266
g57
(g78
g59
NtRp1267
(dp1268
g62
(dp1269
g82
g83
ssg71
g1263
sg64
(lp1270
g336
asbag57
(g78
g59
NtRp1271
(dp1272
g62
(dp1273
g89
g90
ssg71
g1263
sg64
(lp1274
S':'
asbag57
(g78
g59
NtRp1275
(dp1276
g62
(dp1277
sg71
g1263
sg64
(lp1278
g57
(g58
g59
NtRp1279
(dp1280
g62
(dp1281
g70
I3
ssg71
g1275
sg64
(lp1282
S''
asbasbasbag57
(g73
g59
NtRp1283
(dp1284
g62
(dp1285
sg71
g1219
sg64
(lp1286
g57
(g78
g59
NtRp1287
(dp1288
g62
(dp1289
g82
g83
ssg71
g1283
sg64
(lp1290
g357
asbag57
(g78
g59
NtRp1291
(dp1292
g62
(dp1293
g89
g90
ssg71
g1283
sg64
(lp1294
S':'
asbag57
(g78
g59
NtRp1295
(dp1296
g62
(dp1297
sg71
g1283
sg64
(lp1298
g57
(g58
g59
NtRp1299
(dp1300
g62
(dp1301
g70
I3
ssg71
g1295
sg64
(lp1302
S''
asbasbasbag57
(g73
g59
NtRp1303
(dp1304
g62
(dp1305
sg71
g1219
sg64
(lp1306
g57
(g78
g59
NtRp1307
(dp1308
g62
(dp1309
g82
g83
ssg71
g1303
sg64
(lp1310
g378
asbag57
(g78
g59
NtRp1311
(dp1312
g62
(dp1313
g89
g90
ssg71
g1303
sg64
(lp1314
S':'
asbag57
(g78
g59
NtRp1315
(dp1316
g62
(dp1317
sg71
g1303
sg64
(lp1318
g57
(g58
g59
NtRp1319
(dp1320
g62
(dp1321
g70
I3
ssg71
g1315
sg64
(lp1322
S''
asbasbasbag57
(g73
g59
NtRp1323
(dp1324
g62
(dp1325
sg71
g1219
sg64
(lp1326
g57
(g78
g59
NtRp1327
(dp1328
g62
(dp1329
g82
g83
ssg71
g1323
sg64
(lp1330
g399
asbag57
(g78
g59
NtRp1331
(dp1332
g62
(dp1333
g89
g90
ssg71
g1323
sg64
(lp1334
S':'
asbag57
(g78
g59
NtRp1335
(dp1336
g62
(dp1337
sg71
g1323
sg64
(lp1338
g57
(g58
g59
NtRp1339
(dp1340
g62
(dp1341
g70
I3
ssg71
g1335
sg64
(lp1342
S''
asbasbasbag57
(g73
g59
NtRp1343
(dp1344
g62
(dp1345
sg71
g1219
sg64
(lp1346
g57
(g78
g59
NtRp1347
(dp1348
g62
(dp1349
g82
g83
ssg71
g1343
sg64
(lp1350
g420
asbag57
(g78
g59
NtRp1351
(dp1352
g62
(dp1353
g89
g90
ssg71
g1343
sg64
(lp1354
S':'
asbag57
(g78
g59
NtRp1355
(dp1356
g62
(dp1357
sg71
g1343
sg64
(lp1358
g57
(g58
g59
NtRp1359
(dp1360
g62
(dp1361
g70
I3
ssg71
g1355
sg64
(lp1362
S''
asbasbasbag57
(g73
g59
NtRp1363
(dp1364
g62
(dp1365
sg71
g1219
sg64
(lp1366
g57
(g78
g59
NtRp1367
(dp1368
g62
(dp1369
g82
g83
ssg71
g1363
sg64
(lp1370
g441
asbag57
(g78
g59
NtRp1371
(dp1372
g62
(dp1373
g89
g90
ssg71
g1363
sg64
(lp1374
S':'
asbag57
(g78
g59
NtRp1375
(dp1376
g62
(dp1377
sg71
g1363
sg64
(lp1378
g57
(g58
g59
NtRp1379
(dp1380
g62
(dp1381
g70
I3
ssg71
g1375
sg64
(lp1382
S''
asbasbasbasbasbasbasbasbasbasbasbag57
(g73
g59
NtRp1383
(dp1384
g62
(dp1385
sg71
g67
sg64
(lp1386
g57
(g78
g59
NtRp1387
(dp1388
g62
(dp1389
g82
g83
ssg71
g1383
sg64
(lp1390
S'env'
p1391
asbag57
(g78
g59
NtRp1392
(dp1393
g62
(dp1394
g89
g90
ssg71
g1383
sg64
(lp1395
S':'
asbag57
(g78
g59
NtRp1396
(dp1397
g62
(dp1398
sg71
g1383
sg64
(lp1399
g57
(g58
g59
NtRp1400
(dp1401
g62
(dp1402
g70
I5
ssg71
g1396
sg64
(lp1403
g57
(g66
g59
NtRp1404
(dp1405
g62
(dp1406
g70
I4
ssg71
Nsg64
(lp1407
g57
(g73
g59
NtRp1408
(dp1409
g62
(dp1410
sg71
g1404
sg64
(lp1411
g57
(g78
g59
NtRp1412
(dp1413
g62
(dp1414
g82
g83
ssg71
g1408
sg64
(lp1415
S'app_folders'
p1416
asbag57
(g78
g59
NtRp1417
(dp1418
g62
(dp1419
g89
g90
ssg71
g1408
sg64
(lp1420
S':'
asbag57
(g78
g59
NtRp1421
(dp1422
g62
(dp1423
sg71
g1408
sg64
(lp1424
g57
(g58
g59
NtRp1425
(dp1426
g62
(dp1427
g70
I4
ssg71
g1421
sg64
(lp1428
S"set(['/home/python/P\\xc3\\xbablico/web2py/web2py/applications/repositorio/', '/home/python/P\\xc3\\xbablico/web2py/web2py/applications/admin/'])"
p1429
asbasbasbag57
(g73
g59
NtRp1430
(dp1431
g62
(dp1432
sg71
g1404
sg64
(lp1433
g57
(g78
g59
NtRp1434
(dp1435
g62
(dp1436
g82
g83
ssg71
g1430
sg64
(lp1437
S'applications_parent'
p1438
asbag57
(g78
g59
NtRp1439
(dp1440
g62
(dp1441
g89
g90
ssg71
g1430
sg64
(lp1442
S':'
asbag57
(g78
g59
NtRp1443
(dp1444
g62
(dp1445
sg71
g1430
sg64
(lp1446
g57
(g58
g59
NtRp1447
(dp1448
g62
(dp1449
g70
I4
ssg71
g1443
sg64
(lp1450
S'/home/python/P\xc3\xbablico/web2py/web2py'
p1451
asbasbasbag57
(g73
g59
NtRp1452
(dp1453
g62
(dp1454
sg71
g1404
sg64
(lp1455
g57
(g78
g59
NtRp1456
(dp1457
g62
(dp1458
g82
g83
ssg71
g1452
sg64
(lp1459
S'cmd_args'
p1460
asbag57
(g78
g59
NtRp1461
(dp1462
g62
(dp1463
g89
g90
ssg71
g1452
sg64
(lp1464
S':'
asbag57
(g78
g59
NtRp1465
(dp1466
g62
(dp1467
sg71
g1452
sg64
(lp1468
g57
(g58
g59
NtRp1469
(dp1470
g62
(dp1471
g70
I4
ssg71
g1465
sg64
(lp1472
g57
(g66
g59
NtRp1473
(dp1474
g62
(dp1475
g70
I3
ssg71
Nsg64
(lp1476
sbasbasbasbag57
(g73
g59
NtRp1477
(dp1478
g62
(dp1479
sg71
g1404
sg64
(lp1480
g57
(g78
g59
NtRp1481
(dp1482
g62
(dp1483
g82
g83
ssg71
g1477
sg64
(lp1484
S'cmd_options'
p1485
asbag57
(g78
g59
NtRp1486
(dp1487
g62
(dp1488
g89
g90
ssg71
g1477
sg64
(lp1489
S':'
asbag57
(g78
g59
NtRp1490
(dp1491
g62
(dp1492
sg71
g1477
sg64
(lp1493
g57
(g58
g59
NtRp1494
(dp1495
g62
(dp1496
g70
I4
ssg71
g1490
sg64
(lp1497
S"<Values at 0x9868fec: {'verbose': False, 'ip': '127.0.0.1', 'with_scheduler': False, 'ips': [], 'shutdown_timeout': 5, 'taskbar': False, 'port': 8000, 'maxthreads': None, 'softcron': False, 'server_name': 'python-HP-Pavilion-dm1-Notebook-PC', 'bpython': False, 'nogui': False, 'pid_filename': 'httpserver.pid', 'extcron': False, 'runcron': False, 'run_system_tests': False, 'test': None, 'folder': '/home/python/P\\xc3\\xbablico/web2py/web2py', 'config': '', 'import_models': False, 'winservice': '', 'shell': None, 'run': '', 'log_filename': 'httpserver.log', 'debuglevel': 30, 'args': [''], 'socket_timeout': 5, 'ssl_ca_certificate': None, 'scheduler': None, 'profiler_filename': None, 'ssl_private_key': '', 'scheduler_groups': None, 'password': 'sam', 'request_queue_size': 5, 'ssl_certificate': '', 'cronjob': False, 'numthreads': None, 'quiet': False, 'interfaces': None, 'minthreads': None, 'timeout': 10, 'plain': False, 'nobanner': False}>"
p1498
asbasbasbag57
(g73
g59
NtRp1499
(dp1500
g62
(dp1501
sg71
g1404
sg64
(lp1502
g57
(g78
g59
NtRp1503
(dp1504
g62
(dp1505
g82
g83
ssg71
g1499
sg64
(lp1506
S'db_sessions'
p1507
asbag57
(g78
g59
NtRp1508
(dp1509
g62
(dp1510
g89
g90
ssg71
g1499
sg64
(lp1511
S':'
asbag57
(g78
g59
NtRp1512
(dp1513
g62
(dp1514
sg71
g1499
sg64
(lp1515
g57
(g58
g59
NtRp1516
(dp1517
g62
(dp1518
g70
I4
ssg71
g1512
sg64
(lp1519
S'set([])'
p1520
asbasbasbag57
(g73
g59
NtRp1521
(dp1522
g62
(dp1523
sg71
g1404
sg64
(lp1524
g57
(g78
g59
NtRp1525
(dp1526
g62
(dp1527
g82
g83
ssg71
g1521
sg64
(lp1528
S'debugging'
p1529
asbag57
(g78
g59
NtRp1530
(dp1531
g62
(dp1532
g89
g90
ssg71
g1521
sg64
(lp1533
S':'
asbag57
(g78
g59
NtRp1534
(dp1535
g62
(dp1536
sg71
g1521
sg64
(lp1537
g57
(g58
g59
NtRp1538
(dp1539
g62
(dp1540
g70
I4
ssg71
g1534
sg64
(lp1541
g100
asbasbasbag57
(g73
g59
NtRp1542
(dp1543
g62
(dp1544
sg71
g1404
sg64
(lp1545
g57
(g78
g59
NtRp1546
(dp1547
g62
(dp1548
g82
g83
ssg71
g1542
sg64
(lp1549
S'gluon_parent'
p1550
asbag57
(g78
g59
NtRp1551
(dp1552
g62
(dp1553
g89
g90
ssg71
g1542
sg64
(lp1554
S':'
asbag57
(g78
g59
NtRp1555
(dp1556
g62
(dp1557
sg71
g1542
sg64
(lp1558
g57
(g58
g59
NtRp1559
(dp1560
g62
(dp1561
g70
I4
ssg71
g1555
sg64
(lp1562
S'/home/python/P\xc3\xbablico/web2py/web2py'
p1563
asbasbasbag57
(g73
g59
NtRp1564
(dp1565
g62
(dp1566
sg71
g1404
sg64
(lp1567
g57
(g78
g59
NtRp1568
(dp1569
g62
(dp1570
g82
g83
ssg71
g1564
sg64
(lp1571
S'http_accept'
p1572
asbag57
(g78
g59
NtRp1573
(dp1574
g62
(dp1575
g89
g90
ssg71
g1564
sg64
(lp1576
S':'
asbag57
(g78
g59
NtRp1577
(dp1578
g62
(dp1579
sg71
g1564
sg64
(lp1580
g57
(g58
g59
NtRp1581
(dp1582
g62
(dp1583
g70
I4
ssg71
g1577
sg64
(lp1584
S'text/html,application/xhtml+xml,application/xml;q=0.9,*/*;q=0.8'
p1585
asbasbasbag57
(g73
g59
NtRp1586
(dp1587
g62
(dp1588
sg71
g1404
sg64
(lp1589
g57
(g78
g59
NtRp1590
(dp1591
g62
(dp1592
g82
g83
ssg71
g1586
sg64
(lp1593
S'http_accept_encoding'
p1594
asbag57
(g78
g59
NtRp1595
(dp1596
g62
(dp1597
g89
g90
ssg71
g1586
sg64
(lp1598
S':'
asbag57
(g78
g59
NtRp1599
(dp1600
g62
(dp1601
sg71
g1586
sg64
(lp1602
g57
(g58
g59
NtRp1603
(dp1604
g62
(dp1605
g70
I4
ssg71
g1599
sg64
(lp1606
S'gzip, deflate'
p1607
asbasbasbag57
(g73
g59
NtRp1608
(dp1609
g62
(dp1610
sg71
g1404
sg64
(lp1611
g57
(g78
g59
NtRp1612
(dp1613
g62
(dp1614
g82
g83
ssg71
g1608
sg64
(lp1615
S'http_accept_language'
p1616
asbag57
(g78
g59
NtRp1617
(dp1618
g62
(dp1619
g89
g90
ssg71
g1608
sg64
(lp1620
S':'
asbag57
(g78
g59
NtRp1621
(dp1622
g62
(dp1623
sg71
g1608
sg64
(lp1624
g57
(g58
g59
NtRp1625
(dp1626
g62
(dp1627
g70
I4
ssg71
g1621
sg64
(lp1628
S'es-cl,es;q=0.8,en-us;q=0.5,en;q=0.3'
p1629
asbasbasbag57
(g73
g59
NtRp1630
(dp1631
g62
(dp1632
sg71
g1404
sg64
(lp1633
g57
(g78
g59
NtRp1634
(dp1635
g62
(dp1636
g82
g83
ssg71
g1630
sg64
(lp1637
S'http_connection'
p1638
asbag57
(g78
g59
NtRp1639
(dp1640
g62
(dp1641
g89
g90
ssg71
g1630
sg64
(lp1642
S':'
asbag57
(g78
g59
NtRp1643
(dp1644
g62
(dp1645
sg71
g1630
sg64
(lp1646
g57
(g58
g59
NtRp1647
(dp1648
g62
(dp1649
g70
I4
ssg71
g1643
sg64
(lp1650
S'keep-alive'
p1651
asbasbasbag57
(g73
g59
NtRp1652
(dp1653
g62
(dp1654
sg71
g1404
sg64
(lp1655
g57
(g78
g59
NtRp1656
(dp1657
g62
(dp1658
g82
g83
ssg71
g1652
sg64
(lp1659
S'http_cookie'
p1660
asbag57
(g78
g59
NtRp1661
(dp1662
g62
(dp1663
g89
g90
ssg71
g1652
sg64
(lp1664
S':'
asbag57
(g78
g59
NtRp1665
(dp1666
g62
(dp1667
sg71
g1652
sg64
(lp1668
g57
(g58
g59
NtRp1669
(dp1670
g62
(dp1671
g70
I4
ssg71
g1665
sg64
(lp1672
S'csrftoken=mA3uPbrpUrk0p93dhSNtcRXxuitlxH4w; session_id_cms=127.0.0.1-2895d956-694f-42df-af47-270be9897726; session_id_admin=127.0.0.1-5d36a716-a599-45d4-9294-95f7c6cb7eeb; __utma=96992031.234760466.1363198910.1363198910.1363198910.1; __utmc=96992031; __utmz=96992031.1363198911.1.1.utmcsr=(direct)|utmccn=(direct)|utmcmd=(none); _jsuid=3402000508; __qca=P0-1149348480-1363198911174; devicePixelRatio=1; viewport=1350; heatmaps_g2g_66475898=no'
p1673
asbasbasbag57
(g73
g59
NtRp1674
(dp1675
g62
(dp1676
sg71
g1404
sg64
(lp1677
g57
(g78
g59
NtRp1678
(dp1679
g62
(dp1680
g82
g83
ssg71
g1674
sg64
(lp1681
S'http_host'
p1682
asbag57
(g78
g59
NtRp1683
(dp1684
g62
(dp1685
g89
g90
ssg71
g1674
sg64
(lp1686
S':'
asbag57
(g78
g59
NtRp1687
(dp1688
g62
(dp1689
sg71
g1674
sg64
(lp1690
g57
(g58
g59
NtRp1691
(dp1692
g62
(dp1693
g70
I4
ssg71
g1687
sg64
(lp1694
S'127.0.0.1:8000'
p1695
asbasbasbag57
(g73
g59
NtRp1696
(dp1697
g62
(dp1698
sg71
g1404
sg64
(lp1699
g57
(g78
g59
NtRp1700
(dp1701
g62
(dp1702
g82
g83
ssg71
g1696
sg64
(lp1703
S'http_referer'
p1704
asbag57
(g78
g59
NtRp1705
(dp1706
g62
(dp1707
g89
g90
ssg71
g1696
sg64
(lp1708
S':'
asbag57
(g78
g59
NtRp1709
(dp1710
g62
(dp1711
sg71
g1696
sg64
(lp1712
g57
(g58
g59
NtRp1713
(dp1714
g62
(dp1715
g70
I4
ssg71
g1709
sg64
(lp1716
S'http://127.0.0.1:8000/admin/default/design/repositorio'
p1717
asbasbasbag57
(g73
g59
NtRp1718
(dp1719
g62
(dp1720
sg71
g1404
sg64
(lp1721
g57
(g78
g59
NtRp1722
(dp1723
g62
(dp1724
g82
g83
ssg71
g1718
sg64
(lp1725
S'http_user_agent'
p1726
asbag57
(g78
g59
NtRp1727
(dp1728
g62
(dp1729
g89
g90
ssg71
g1718
sg64
(lp1730
S':'
asbag57
(g78
g59
NtRp1731
(dp1732
g62
(dp1733
sg71
g1718
sg64
(lp1734
g57
(g58
g59
NtRp1735
(dp1736
g62
(dp1737
g70
I4
ssg71
g1731
sg64
(lp1738
S'Mozilla/5.0 (X11; Ubuntu; Linux i686; rv:19.0) Gecko/20100101 Firefox/19.0'
p1739
asbasbasbag57
(g73
g59
NtRp1740
(dp1741
g62
(dp1742
sg71
g1404
sg64
(lp1743
g57
(g78
g59
NtRp1744
(dp1745
g62
(dp1746
g82
g83
ssg71
g1740
sg64
(lp1747
S'is_jython'
p1748
asbag57
(g78
g59
NtRp1749
(dp1750
g62
(dp1751
g89
g90
ssg71
g1740
sg64
(lp1752
S':'
asbag57
(g78
g59
NtRp1753
(dp1754
g62
(dp1755
sg71
g1740
sg64
(lp1756
g57
(g58
g59
NtRp1757
(dp1758
g62
(dp1759
g70
I4
ssg71
g1753
sg64
(lp1760
g100
asbasbasbag57
(g73
g59
NtRp1761
(dp1762
g62
(dp1763
sg71
g1404
sg64
(lp1764
g57
(g78
g59
NtRp1765
(dp1766
g62
(dp1767
g82
g83
ssg71
g1761
sg64
(lp1768
S'is_pypy'
p1769
asbag57
(g78
g59
NtRp1770
(dp1771
g62
(dp1772
g89
g90
ssg71
g1761
sg64
(lp1773
S':'
asbag57
(g78
g59
NtRp1774
(dp1775
g62
(dp1776
sg71
g1761
sg64
(lp1777
g57
(g58
g59
NtRp1778
(dp1779
g62
(dp1780
g70
I4
ssg71
g1774
sg64
(lp1781
g100
asbasbasbag57
(g73
g59
NtRp1782
(dp1783
g62
(dp1784
sg71
g1404
sg64
(lp1785
g57
(g78
g59
NtRp1786
(dp1787
g62
(dp1788
g82
g83
ssg71
g1782
sg64
(lp1789
S'local_hosts'
p1790
asbag57
(g78
g59
NtRp1791
(dp1792
g62
(dp1793
g89
g90
ssg71
g1782
sg64
(lp1794
S':'
asbag57
(g78
g59
NtRp1795
(dp1796
g62
(dp1797
sg71
g1782
sg64
(lp1798
g57
(g58
g59
NtRp1799
(dp1800
g62
(dp1801
g70
I4
ssg71
g1795
sg64
(lp1802
g57
(g66
g59
NtRp1803
(dp1804
g62
(dp1805
g70
I3
ssg71
Nsg64
(lp1806
g57
(g73
g59
NtRp1807
(dp1808
g62
(dp1809
sg71
g1803
sg64
(lp1810
g57
(g78
g59
NtRp1811
(dp1812
g62
(dp1813
sg71
g1807
sg64
(lp1814
g57
(g58
g59
NtRp1815
(dp1816
g62
(dp1817
g70
I3
ssg71
g1811
sg64
(lp1818
S'::1'
p1819
asbasbasbag57
(g73
g59
NtRp1820
(dp1821
g62
(dp1822
sg71
g1803
sg64
(lp1823
g57
(g78
g59
NtRp1824
(dp1825
g62
(dp1826
sg71
g1820
sg64
(lp1827
g57
(g58
g59
NtRp1828
(dp1829
g62
(dp1830
g70
I3
ssg71
g1824
sg64
(lp1831
S'127.0.1.1'
p1832
asbasbasbag57
(g73
g59
NtRp1833
(dp1834
g62
(dp1835
sg71
g1803
sg64
(lp1836
g57
(g78
g59
NtRp1837
(dp1838
g62
(dp1839
sg71
g1833
sg64
(lp1840
g57
(g58
g59
NtRp1841
(dp1842
g62
(dp1843
g70
I3
ssg71
g1837
sg64
(lp1844
S'::ffff:127.0.0.1'
p1845
asbasbasbag57
(g73
g59
NtRp1846
(dp1847
g62
(dp1848
sg71
g1803
sg64
(lp1849
g57
(g78
g59
NtRp1850
(dp1851
g62
(dp1852
sg71
g1846
sg64
(lp1853
g57
(g58
g59
NtRp1854
(dp1855
g62
(dp1856
g70
I3
ssg71
g1850
sg64
(lp1857
S'127.0.0.1'
p1858
asbasbasbag57
(g73
g59
NtRp1859
(dp1860
g62
(dp1861
sg71
g1803
sg64
(lp1862
g57
(g78
g59
NtRp1863
(dp1864
g62
(dp1865
sg71
g1859
sg64
(lp1866
g57
(g58
g59
NtRp1867
(dp1868
g62
(dp1869
g70
I3
ssg71
g1863
sg64
(lp1870
S'python-HP-Pavilion-dm1-Notebook-PC'
p1871
asbasbasbasbasbasbasbag57
(g73
g59
NtRp1872
(dp1873
g62
(dp1874
sg71
g1404
sg64
(lp1875
g57
(g78
g59
NtRp1876
(dp1877
g62
(dp1878
g82
g83
ssg71
g1872
sg64
(lp1879
S'path_info'
p1880
asbag57
(g78
g59
NtRp1881
(dp1882
g62
(dp1883
g89
g90
ssg71
g1872
sg64
(lp1884
S':'
asbag57
(g78
g59
NtRp1885
(dp1886
g62
(dp1887
sg71
g1872
sg64
(lp1888
g57
(g58
g59
NtRp1889
(dp1890
g62
(dp1891
g70
I4
ssg71
g1885
sg64
(lp1892
S'/repositorio/default/index'
p1893
asbasbasbag57
(g73
g59
NtRp1894
(dp1895
g62
(dp1896
sg71
g1404
sg64
(lp1897
g57
(g78
g59
NtRp1898
(dp1899
g62
(dp1900
g82
g83
ssg71
g1894
sg64
(lp1901
S'query_string'
p1902
asbag57
(g78
g59
NtRp1903
(dp1904
g62
(dp1905
g89
g90
ssg71
g1894
sg64
(lp1906
S':'
asbag57
(g78
g59
NtRp1907
(dp1908
g62
(dp1909
sg71
g1894
sg64
(lp1910
g57
(g58
g59
NtRp1911
(dp1912
g62
(dp1913
g70
I4
ssg71
g1907
sg64
(lp1914
S''
asbasbasbag57
(g73
g59
NtRp1915
(dp1916
g62
(dp1917
sg71
g1404
sg64
(lp1918
g57
(g78
g59
NtRp1919
(dp1920
g62
(dp1921
g82
g83
ssg71
g1915
sg64
(lp1922
S'remote_addr'
p1923
asbag57
(g78
g59
NtRp1924
(dp1925
g62
(dp1926
g89
g90
ssg71
g1915
sg64
(lp1927
S':'
asbag57
(g78
g59
NtRp1928
(dp1929
g62
(dp1930
sg71
g1915
sg64
(lp1931
g57
(g58
g59
NtRp1932
(dp1933
g62
(dp1934
g70
I4
ssg71
g1928
sg64
(lp1935
g212
asbasbasbag57
(g73
g59
NtRp1936
(dp1937
g62
(dp1938
sg71
g1404
sg64
(lp1939
g57
(g78
g59
NtRp1940
(dp1941
g62
(dp1942
g82
g83
ssg71
g1936
sg64
(lp1943
S'remote_port'
p1944
asbag57
(g78
g59
NtRp1945
(dp1946
g62
(dp1947
g89
g90
ssg71
g1936
sg64
(lp1948
S':'
asbag57
(g78
g59
NtRp1949
(dp1950
g62
(dp1951
sg71
g1936
sg64
(lp1952
g57
(g58
g59
NtRp1953
(dp1954
g62
(dp1955
g70
I4
ssg71
g1949
sg64
(lp1956
S'33952'
p1957
asbasbasbag57
(g73
g59
NtRp1958
(dp1959
g62
(dp1960
sg71
g1404
sg64
(lp1961
g57
(g78
g59
NtRp1962
(dp1963
g62
(dp1964
g82
g83
ssg71
g1958
sg64
(lp1965
S'request_method'
p1966
asbag57
(g78
g59
NtRp1967
(dp1968
g62
(dp1969
g89
g90
ssg71
g1958
sg64
(lp1970
S':'
asbag57
(g78
g59
NtRp1971
(dp1972
g62
(dp1973
sg71
g1958
sg64
(lp1974
g57
(g58
g59
NtRp1975
(dp1976
g62
(dp1977
g70
I4
ssg71
g1971
sg64
(lp1978
S'GET'
p1979
asbasbasbag57
(g73
g59
NtRp1980
(dp1981
g62
(dp1982
sg71
g1404
sg64
(lp1983
g57
(g78
g59
NtRp1984
(dp1985
g62
(dp1986
g82
g83
ssg71
g1980
sg64
(lp1987
S'request_uri'
p1988
asbag57
(g78
g59
NtRp1989
(dp1990
g62
(dp1991
g89
g90
ssg71
g1980
sg64
(lp1992
S':'
asbag57
(g78
g59
NtRp1993
(dp1994
g62
(dp1995
sg71
g1980
sg64
(lp1996
g57
(g58
g59
NtRp1997
(dp1998
g62
(dp1999
g70
I4
ssg71
g1993
sg64
(lp2000
g1893
asbasbasbag57
(g73
g59
NtRp2001
(dp2002
g62
(dp2003
sg71
g1404
sg64
(lp2004
g57
(g78
g59
NtRp2005
(dp2006
g62
(dp2007
g82
g83
ssg71
g2001
sg64
(lp2008
S'script_name'
p2009
asbag57
(g78
g59
NtRp2010
(dp2011
g62
(dp2012
g89
g90
ssg71
g2001
sg64
(lp2013
S':'
asbag57
(g78
g59
NtRp2014
(dp2015
g62
(dp2016
sg71
g2001
sg64
(lp2017
g57
(g58
g59
NtRp2018
(dp2019
g62
(dp2020
g70
I4
ssg71
g2014
sg64
(lp2021
S''
asbasbasbag57
(g73
g59
NtRp2022
(dp2023
g62
(dp2024
sg71
g1404
sg64
(lp2025
g57
(g78
g59
NtRp2026
(dp2027
g62
(dp2028
g82
g83
ssg71
g2022
sg64
(lp2029
S'server_name'
p2030
asbag57
(g78
g59
NtRp2031
(dp2032
g62
(dp2033
g89
g90
ssg71
g2022
sg64
(lp2034
S':'
asbag57
(g78
g59
NtRp2035
(dp2036
g62
(dp2037
sg71
g2022
sg64
(lp2038
g57
(g58
g59
NtRp2039
(dp2040
g62
(dp2041
g70
I4
ssg71
g2035
sg64
(lp2042
S'python-HP-Pavilion-dm1-Notebook-PC'
p2043
asbasbasbag57
(g73
g59
NtRp2044
(dp2045
g62
(dp2046
sg71
g1404
sg64
(lp2047
g57
(g78
g59
NtRp2048
(dp2049
g62
(dp2050
g82
g83
ssg71
g2044
sg64
(lp2051
S'server_port'
p2052
asbag57
(g78
g59
NtRp2053
(dp2054
g62
(dp2055
g89
g90
ssg71
g2044
sg64
(lp2056
S':'
asbag57
(g78
g59
NtRp2057
(dp2058
g62
(dp2059
sg71
g2044
sg64
(lp2060
g57
(g58
g59
NtRp2061
(dp2062
g62
(dp2063
g70
I4
ssg71
g2057
sg64
(lp2064
S'8000'
p2065
asbasbasbag57
(g73
g59
NtRp2066
(dp2067
g62
(dp2068
sg71
g1404
sg64
(lp2069
g57
(g78
g59
NtRp2070
(dp2071
g62
(dp2072
g82
g83
ssg71
g2066
sg64
(lp2073
S'server_protocol'
p2074
asbag57
(g78
g59
NtRp2075
(dp2076
g62
(dp2077
g89
g90
ssg71
g2066
sg64
(lp2078
S':'
asbag57
(g78
g59
NtRp2079
(dp2080
g62
(dp2081
sg71
g2066
sg64
(lp2082
g57
(g58
g59
NtRp2083
(dp2084
g62
(dp2085
g70
I4
ssg71
g2079
sg64
(lp2086
S'HTTP/1.1'
p2087
asbasbasbag57
(g73
g59
NtRp2088
(dp2089
g62
(dp2090
sg71
g1404
sg64
(lp2091
g57
(g78
g59
NtRp2092
(dp2093
g62
(dp2094
g82
g83
ssg71
g2088
sg64
(lp2095
S'server_software'
p2096
asbag57
(g78
g59
NtRp2097
(dp2098
g62
(dp2099
g89
g90
ssg71
g2088
sg64
(lp2100
S':'
asbag57
(g78
g59
NtRp2101
(dp2102
g62
(dp2103
sg71
g2088
sg64
(lp2104
g57
(g58
g59
NtRp2105
(dp2106
g62
(dp2107
g70
I4
ssg71
g2101
sg64
(lp2108
S'Rocket 1.2.6'
p2109
asbasbasbag57
(g73
g59
NtRp2110
(dp2111
g62
(dp2112
sg71
g1404
sg64
(lp2113
g57
(g78
g59
NtRp2114
(dp2115
g62
(dp2116
g82
g83
ssg71
g2110
sg64
(lp2117
S'web2py_path'
p2118
asbag57
(g78
g59
NtRp2119
(dp2120
g62
(dp2121
g89
g90
ssg71
g2110
sg64
(lp2122
S':'
asbag57
(g78
g59
NtRp2123
(dp2124
g62
(dp2125
sg71
g2110
sg64
(lp2126
g57
(g58
g59
NtRp2127
(dp2128
g62
(dp2129
g70
I4
ssg71
g2123
sg64
(lp2130
g1451
asbasbasbag57
(g73
g59
NtRp2131
(dp2132
g62
(dp2133
sg71
g1404
sg64
(lp2134
g57
(g78
g59
NtRp2135
(dp2136
g62
(dp2137
g82
g83
ssg71
g2131
sg64
(lp2138
S'web2py_version'
p2139
asbag57
(g78
g59
NtRp2140
(dp2141
g62
(dp2142
g89
g90
ssg71
g2131
sg64
(lp2143
S':'
asbag57
(g78
g59
NtRp2144
(dp2145
g62
(dp2146
sg71
g2131
sg64
(lp2147
g57
(g58
g59
NtRp2148
(dp2149
g62
(dp2150
g70
I4
ssg71
g2144
sg64
(lp2151
g57
(g66
g59
NtRp2152
(dp2153
g62
(dp2154
g70
I3
ssg71
Nsg64
(lp2155
g57
(g73
g59
NtRp2156
(dp2157
g62
(dp2158
sg71
g2152
sg64
(lp2159
g57
(g78
g59
NtRp2160
(dp2161
g62
(dp2162
sg71
g2156
sg64
(lp2163
g57
(g58
g59
NtRp2164
(dp2165
g62
(dp2166
g70
I3
ssg71
g2160
sg64
(lp2167
S'2'
asbasbasbag57
(g73
g59
NtRp2168
(dp2169
g62
(dp2170
sg71
g2152
sg64
(lp2171
g57
(g78
g59
NtRp2172
(dp2173
g62
(dp2174
sg71
g2168
sg64
(lp2175
g57
(g58
g59
NtRp2176
(dp2177
g62
(dp2178
g70
I3
ssg71
g2172
sg64
(lp2179
S'3'
asbasbasbag57
(g73
g59
NtRp2180
(dp2181
g62
(dp2182
sg71
g2152
sg64
(lp2183
g57
(g78
g59
NtRp2184
(dp2185
g62
(dp2186
sg71
g2180
sg64
(lp2187
g57
(g58
g59
NtRp2188
(dp2189
g62
(dp2190
g70
I3
ssg71
g2184
sg64
(lp2191
S'2'
asbasbasbag57
(g73
g59
NtRp2192
(dp2193
g62
(dp2194
sg71
g2152
sg64
(lp2195
g57
(g78
g59
NtRp2196
(dp2197
g62
(dp2198
sg71
g2192
sg64
(lp2199
g57
(g58
g59
NtRp2200
(dp2201
g62
(dp2202
g70
I3
ssg71
g2196
sg64
(lp2203
S'datetime.datetime(2012, 12, 17, 15, 3, 30)'
p2204
asbasbasbag57
(g73
g59
NtRp2205
(dp2206
g62
(dp2207
sg71
g2152
sg64
(lp2208
g57
(g78
g59
NtRp2209
(dp2210
g62
(dp2211
sg71
g2205
sg64
(lp2212
g57
(g58
g59
NtRp2213
(dp2214
g62
(dp2215
g70
I3
ssg71
g2209
sg64
(lp2216
S'stable'
p2217
asbasbasbasbasbasbasbag57
(g73
g59
NtRp2218
(dp2219
g62
(dp2220
sg71
g1404
sg64
(lp2221
g57
(g78
g59
NtRp2222
(dp2223
g62
(dp2224
g82
g83
ssg71
g2218
sg64
(lp2225
S'wsgi_errors'
p2226
asbag57
(g78
g59
NtRp2227
(dp2228
g62
(dp2229
g89
g90
ssg71
g2218
sg64
(lp2230
S':'
asbag57
(g78
g59
NtRp2231
(dp2232
g62
(dp2233
sg71
g2218
sg64
(lp2234
g57
(g58
g59
NtRp2235
(dp2236
g62
(dp2237
g70
I4
ssg71
g2231
sg64
(lp2238
S"<open file '<stderr>', mode 'w' at 0xb75500d0>"
p2239
asbasbasbag57
(g73
g59
NtRp2240
(dp2241
g62
(dp2242
sg71
g1404
sg64
(lp2243
g57
(g78
g59
NtRp2244
(dp2245
g62
(dp2246
g82
g83
ssg71
g2240
sg64
(lp2247
S'wsgi_file_wrapper'
p2248
asbag57
(g78
g59
NtRp2249
(dp2250
g62
(dp2251
g89
g90
ssg71
g2240
sg64
(lp2252
S':'
asbag57
(g78
g59
NtRp2253
(dp2254
g62
(dp2255
sg71
g2240
sg64
(lp2256
g57
(g58
g59
NtRp2257
(dp2258
g62
(dp2259
g70
I4
ssg71
g2253
sg64
(lp2260
S'<class wsgiref.util.FileWrapper at 0x983083c>'
p2261
asbasbasbag57
(g73
g59
NtRp2262
(dp2263
g62
(dp2264
sg71
g1404
sg64
(lp2265
g57
(g78
g59
NtRp2266
(dp2267
g62
(dp2268
g82
g83
ssg71
g2262
sg64
(lp2269
S'wsgi_input'
p2270
asbag57
(g78
g59
NtRp2271
(dp2272
g62
(dp2273
g89
g90
ssg71
g2262
sg64
(lp2274
S':'
asbag57
(g78
g59
NtRp2275
(dp2276
g62
(dp2277
sg71
g2262
sg64
(lp2278
g57
(g58
g59
NtRp2279
(dp2280
g62
(dp2281
g70
I4
ssg71
g2275
sg64
(lp2282
S'<socket._fileobject object at 0xb015c6ac>'
p2283
asbasbasbag57
(g73
g59
NtRp2284
(dp2285
g62
(dp2286
sg71
g1404
sg64
(lp2287
g57
(g78
g59
NtRp2288
(dp2289
g62
(dp2290
g82
g83
ssg71
g2284
sg64
(lp2291
S'wsgi_multiprocess'
p2292
asbag57
(g78
g59
NtRp2293
(dp2294
g62
(dp2295
g89
g90
ssg71
g2284
sg64
(lp2296
S':'
asbag57
(g78
g59
NtRp2297
(dp2298
g62
(dp2299
sg71
g2284
sg64
(lp2300
g57
(g58
g59
NtRp2301
(dp2302
g62
(dp2303
g70
I4
ssg71
g2297
sg64
(lp2304
g100
asbasbasbag57
(g73
g59
NtRp2305
(dp2306
g62
(dp2307
sg71
g1404
sg64
(lp2308
g57
(g78
g59
NtRp2309
(dp2310
g62
(dp2311
g82
g83
ssg71
g2305
sg64
(lp2312
S'wsgi_multithread'
p2313
asbag57
(g78
g59
NtRp2314
(dp2315
g62
(dp2316
g89
g90
ssg71
g2305
sg64
(lp2317
S':'
asbag57
(g78
g59
NtRp2318
(dp2319
g62
(dp2320
sg71
g2305
sg64
(lp2321
g57
(g58
g59
NtRp2322
(dp2323
g62
(dp2324
g70
I4
ssg71
g2318
sg64
(lp2325
S'True'
p2326
asbasbasbag57
(g73
g59
NtRp2327
(dp2328
g62
(dp2329
sg71
g1404
sg64
(lp2330
g57
(g78
g59
NtRp2331
(dp2332
g62
(dp2333
g82
g83
ssg71
g2327
sg64
(lp2334
S'wsgi_run_once'
p2335
asbag57
(g78
g59
NtRp2336
(dp2337
g62
(dp2338
g89
g90
ssg71
g2327
sg64
(lp2339
S':'
asbag57
(g78
g59
NtRp2340
(dp2341
g62
(dp2342
sg71
g2327
sg64
(lp2343
g57
(g58
g59
NtRp2344
(dp2345
g62
(dp2346
g70
I4
ssg71
g2340
sg64
(lp2347
g100
asbasbasbag57
(g73
g59
NtRp2348
(dp2349
g62
(dp2350
sg71
g1404
sg64
(lp2351
g57
(g78
g59
NtRp2352
(dp2353
g62
(dp2354
g82
g83
ssg71
g2348
sg64
(lp2355
S'wsgi_url_scheme'
p2356
asbag57
(g78
g59
NtRp2357
(dp2358
g62
(dp2359
g89
g90
ssg71
g2348
sg64
(lp2360
S':'
asbag57
(g78
g59
NtRp2361
(dp2362
g62
(dp2363
sg71
g2348
sg64
(lp2364
g57
(g58
g59
NtRp2365
(dp2366
g62
(dp2367
g70
I4
ssg71
g2361
sg64
(lp2368
S'http'
p2369
asbasbasbag57
(g73
g59
NtRp2370
(dp2371
g62
(dp2372
sg71
g1404
sg64
(lp2373
g57
(g78
g59
NtRp2374
(dp2375
g62
(dp2376
g82
g83
ssg71
g2370
sg64
(lp2377
S'wsgi_version'
p2378
asbag57
(g78
g59
NtRp2379
(dp2380
g62
(dp2381
g89
g90
ssg71
g2370
sg64
(lp2382
S':'
asbag57
(g78
g59
NtRp2383
(dp2384
g62
(dp2385
sg71
g2370
sg64
(lp2386
g57
(g58
g59
NtRp2387
(dp2388
g62
(dp2389
g70
I4
ssg71
g2383
sg64
(lp2390
g57
(g66
g59
NtRp2391
(dp2392
g62
(dp2393
g70
I3
ssg71
Nsg64
(lp2394
g57
(g73
g59
NtRp2395
(dp2396
g62
(dp2397
sg71
g2391
sg64
(lp2398
g57
(g78
g59
NtRp2399
(dp2400
g62
(dp2401
sg71
g2395
sg64
(lp2402
g57
(g58
g59
NtRp2403
(dp2404
g62
(dp2405
g70
I3
ssg71
g2399
sg64
(lp2406
S'1'
asbasbasbag57
(g73
g59
NtRp2407
(dp2408
g62
(dp2409
sg71
g2391
sg64
(lp2410
g57
(g78
g59
NtRp2411
(dp2412
g62
(dp2413
sg71
g2407
sg64
(lp2414
g57
(g58
g59
NtRp2415
(dp2416
g62
(dp2417
g70
I3
ssg71
g2411
sg64
(lp2418
S'0'
asbasbasbasbasbasbasbasbasbasbasbag57
(g73
g59
NtRp2419
(dp2420
g62
(dp2421
sg71
g67
sg64
(lp2422
g57
(g78
g59
NtRp2423
(dp2424
g62
(dp2425
g82
g83
ssg71
g2419
sg64
(lp2426
S'extension'
p2427
asbag57
(g78
g59
NtRp2428
(dp2429
g62
(dp2430
g89
g90
ssg71
g2419
sg64
(lp2431
S':'
asbag57
(g78
g59
NtRp2432
(dp2433
g62
(dp2434
sg71
g2419
sg64
(lp2435
g57
(g58
g59
NtRp2436
(dp2437
g62
(dp2438
g70
I5
ssg71
g2432
sg64
(lp2439
S'html'
p2440
asbasbasbag57
(g73
g59
NtRp2441
(dp2442
g62
(dp2443
sg71
g67
sg64
(lp2444
g57
(g78
g59
NtRp2445
(dp2446
g62
(dp2447
g82
g83
ssg71
g2441
sg64
(lp2448
S'folder'
p2449
asbag57
(g78
g59
NtRp2450
(dp2451
g62
(dp2452
g89
g90
ssg71
g2441
sg64
(lp2453
S':'
asbag57
(g78
g59
NtRp2454
(dp2455
g62
(dp2456
sg71
g2441
sg64
(lp2457
g57
(g58
g59
NtRp2458
(dp2459
g62
(dp2460
g70
I5
ssg71
g2454
sg64
(lp2461
S'/home/python/P\xc3\xbablico/web2py/web2py/applications/repositorio/'
p2462
asbasbasbag57
(g73
g59
NtRp2463
(dp2464
g62
(dp2465
sg71
g67
sg64
(lp2466
g57
(g78
g59
NtRp2467
(dp2468
g62
(dp2469
g82
g83
ssg71
g2463
sg64
(lp2470
S'function'
p2471
asbag57
(g78
g59
NtRp2472
(dp2473
g62
(dp2474
g89
g90
ssg71
g2463
sg64
(lp2475
S':'
asbag57
(g78
g59
NtRp2476
(dp2477
g62
(dp2478
sg71
g2463
sg64
(lp2479
g57
(g58
g59
NtRp2480
(dp2481
g62
(dp2482
g70
I5
ssg71
g2476
sg64
(lp2483
S'index'
p2484
asbasbasbag57
(g73
g59
NtRp2485
(dp2486
g62
(dp2487
sg71
g67
sg64
(lp2488
g57
(g78
g59
NtRp2489
(dp2490
g62
(dp2491
g82
g83
ssg71
g2485
sg64
(lp2492
S'get_vars'
p2493
asbag57
(g78
g59
NtRp2494
(dp2495
g62
(dp2496
g89
g90
ssg71
g2485
sg64
(lp2497
S':'
asbag57
(g78
g59
NtRp2498
(dp2499
g62
(dp2500
sg71
g2485
sg64
(lp2501
g57
(g58
g59
NtRp2502
(dp2503
g62
(dp2504
g70
I5
ssg71
g2498
sg64
(lp2505
g57
(g66
g59
NtRp2506
(dp2507
g62
(dp2508
g70
I4
ssg71
Nsg64
(lp2509
sbasbasbasbag57
(g73
g59
NtRp2510
(dp2511
g62
(dp2512
sg71
g67
sg64
(lp2513
g57
(g78
g59
NtRp2514
(dp2515
g62
(dp2516
g82
g83
ssg71
g2510
sg64
(lp2517
S'global_settings'
p2518
asbag57
(g78
g59
NtRp2519
(dp2520
g62
(dp2521
g89
g90
ssg71
g2510
sg64
(lp2522
S':'
asbag57
(g78
g59
NtRp2523
(dp2524
g62
(dp2525
sg71
g2510
sg64
(lp2526
g57
(g58
g59
NtRp2527
(dp2528
g62
(dp2529
g70
I5
ssg71
g2523
sg64
(lp2530
g57
(g66
g59
NtRp2531
(dp2532
g62
(dp2533
g70
I4
ssg71
Nsg64
(lp2534
g57
(g73
g59
NtRp2535
(dp2536
g62
(dp2537
sg71
g2531
sg64
(lp2538
g57
(g78
g59
NtRp2539
(dp2540
g62
(dp2541
g82
g83
ssg71
g2535
sg64
(lp2542
g1416
asbag57
(g78
g59
NtRp2543
(dp2544
g62
(dp2545
g89
g90
ssg71
g2535
sg64
(lp2546
S':'
asbag57
(g78
g59
NtRp2547
(dp2548
g62
(dp2549
sg71
g2535
sg64
(lp2550
g57
(g58
g59
NtRp2551
(dp2552
g62
(dp2553
g70
I4
ssg71
g2547
sg64
(lp2554
S"set(['/home/python/P\\xc3\\xbablico/web2py/web2py/applications/repositorio/', '/home/python/P\\xc3\\xbablico/web2py/web2py/applications/admin/'])"
p2555
asbasbasbag57
(g73
g59
NtRp2556
(dp2557
g62
(dp2558
sg71
g2531
sg64
(lp2559
g57
(g78
g59
NtRp2560
(dp2561
g62
(dp2562
g82
g83
ssg71
g2556
sg64
(lp2563
g1438
asbag57
(g78
g59
NtRp2564
(dp2565
g62
(dp2566
g89
g90
ssg71
g2556
sg64
(lp2567
S':'
asbag57
(g78
g59
NtRp2568
(dp2569
g62
(dp2570
sg71
g2556
sg64
(lp2571
g57
(g58
g59
NtRp2572
(dp2573
g62
(dp2574
g70
I4
ssg71
g2568
sg64
(lp2575
g1451
asbasbasbag57
(g73
g59
NtRp2576
(dp2577
g62
(dp2578
sg71
g2531
sg64
(lp2579
g57
(g78
g59
NtRp2580
(dp2581
g62
(dp2582
g82
g83
ssg71
g2576
sg64
(lp2583
g1460
asbag57
(g78
g59
NtRp2584
(dp2585
g62
(dp2586
g89
g90
ssg71
g2576
sg64
(lp2587
S':'
asbag57
(g78
g59
NtRp2588
(dp2589
g62
(dp2590
sg71
g2576
sg64
(lp2591
g57
(g58
g59
NtRp2592
(dp2593
g62
(dp2594
g70
I4
ssg71
g2588
sg64
(lp2595
g57
(g66
g59
NtRp2596
(dp2597
g62
(dp2598
g70
I3
ssg71
Nsg64
(lp2599
sbasbasbasbag57
(g73
g59
NtRp2600
(dp2601
g62
(dp2602
sg71
g2531
sg64
(lp2603
g57
(g78
g59
NtRp2604
(dp2605
g62
(dp2606
g82
g83
ssg71
g2600
sg64
(lp2607
g1485
asbag57
(g78
g59
NtRp2608
(dp2609
g62
(dp2610
g89
g90
ssg71
g2600
sg64
(lp2611
S':'
asbag57
(g78
g59
NtRp2612
(dp2613
g62
(dp2614
sg71
g2600
sg64
(lp2615
g57
(g58
g59
NtRp2616
(dp2617
g62
(dp2618
g70
I4
ssg71
g2612
sg64
(lp2619
S"<Values at 0x9868fec: {'verbose': False, 'ip': '127.0.0.1', 'with_scheduler': False, 'ips': [], 'shutdown_timeout': 5, 'taskbar': False, 'port': 8000, 'maxthreads': None, 'softcron': False, 'server_name': 'python-HP-Pavilion-dm1-Notebook-PC', 'bpython': False, 'nogui': False, 'pid_filename': 'httpserver.pid', 'extcron': False, 'runcron': False, 'run_system_tests': False, 'test': None, 'folder': '/home/python/P\\xc3\\xbablico/web2py/web2py', 'config': '', 'import_models': False, 'winservice': '', 'shell': None, 'run': '', 'log_filename': 'httpserver.log', 'debuglevel': 30, 'args': [''], 'socket_timeout': 5, 'ssl_ca_certificate': None, 'scheduler': None, 'profiler_filename': None, 'ssl_private_key': '', 'scheduler_groups': None, 'password': 'sam', 'request_queue_size': 5, 'ssl_certificate': '', 'cronjob': False, 'numthreads': None, 'quiet': False, 'interfaces': None, 'minthreads': None, 'timeout': 10, 'plain': False, 'nobanner': False}>"
p2620
asbasbasbag57
(g73
g59
NtRp2621
(dp2622
g62
(dp2623
sg71
g2531
sg64
(lp2624
g57
(g78
g59
NtRp2625
(dp2626
g62
(dp2627
g82
g83
ssg71
g2621
sg64
(lp2628
g1507
asbag57
(g78
g59
NtRp2629
(dp2630
g62
(dp2631
g89
g90
ssg71
g2621
sg64
(lp2632
S':'
asbag57
(g78
g59
NtRp2633
(dp2634
g62
(dp2635
sg71
g2621
sg64
(lp2636
g57
(g58
g59
NtRp2637
(dp2638
g62
(dp2639
g70
I4
ssg71
g2633
sg64
(lp2640
S'set([])'
p2641
asbasbasbag57
(g73
g59
NtRp2642
(dp2643
g62
(dp2644
sg71
g2531
sg64
(lp2645
g57
(g78
g59
NtRp2646
(dp2647
g62
(dp2648
g82
g83
ssg71
g2642
sg64
(lp2649
g1529
asbag57
(g78
g59
NtRp2650
(dp2651
g62
(dp2652
g89
g90
ssg71
g2642
sg64
(lp2653
S':'
asbag57
(g78
g59
NtRp2654
(dp2655
g62
(dp2656
sg71
g2642
sg64
(lp2657
g57
(g58
g59
NtRp2658
(dp2659
g62
(dp2660
g70
I4
ssg71
g2654
sg64
(lp2661
g100
asbasbasbag57
(g73
g59
NtRp2662
(dp2663
g62
(dp2664
sg71
g2531
sg64
(lp2665
g57
(g78
g59
NtRp2666
(dp2667
g62
(dp2668
g82
g83
ssg71
g2662
sg64
(lp2669
g1550
asbag57
(g78
g59
NtRp2670
(dp2671
g62
(dp2672
g89
g90
ssg71
g2662
sg64
(lp2673
S':'
asbag57
(g78
g59
NtRp2674
(dp2675
g62
(dp2676
sg71
g2662
sg64
(lp2677
g57
(g58
g59
NtRp2678
(dp2679
g62
(dp2680
g70
I4
ssg71
g2674
sg64
(lp2681
g1563
asbasbasbag57
(g73
g59
NtRp2682
(dp2683
g62
(dp2684
sg71
g2531
sg64
(lp2685
g57
(g78
g59
NtRp2686
(dp2687
g62
(dp2688
g82
g83
ssg71
g2682
sg64
(lp2689
g1748
asbag57
(g78
g59
NtRp2690
(dp2691
g62
(dp2692
g89
g90
ssg71
g2682
sg64
(lp2693
S':'
asbag57
(g78
g59
NtRp2694
(dp2695
g62
(dp2696
sg71
g2682
sg64
(lp2697
g57
(g58
g59
NtRp2698
(dp2699
g62
(dp2700
g70
I4
ssg71
g2694
sg64
(lp2701
g100
asbasbasbag57
(g73
g59
NtRp2702
(dp2703
g62
(dp2704
sg71
g2531
sg64
(lp2705
g57
(g78
g59
NtRp2706
(dp2707
g62
(dp2708
g82
g83
ssg71
g2702
sg64
(lp2709
g1769
asbag57
(g78
g59
NtRp2710
(dp2711
g62
(dp2712
g89
g90
ssg71
g2702
sg64
(lp2713
S':'
asbag57
(g78
g59
NtRp2714
(dp2715
g62
(dp2716
sg71
g2702
sg64
(lp2717
g57
(g58
g59
NtRp2718
(dp2719
g62
(dp2720
g70
I4
ssg71
g2714
sg64
(lp2721
g100
asbasbasbag57
(g73
g59
NtRp2722
(dp2723
g62
(dp2724
sg71
g2531
sg64
(lp2725
g57
(g78
g59
NtRp2726
(dp2727
g62
(dp2728
g82
g83
ssg71
g2722
sg64
(lp2729
g1790
asbag57
(g78
g59
NtRp2730
(dp2731
g62
(dp2732
g89
g90
ssg71
g2722
sg64
(lp2733
S':'
asbag57
(g78
g59
NtRp2734
(dp2735
g62
(dp2736
sg71
g2722
sg64
(lp2737
g57
(g58
g59
NtRp2738
(dp2739
g62
(dp2740
g70
I4
ssg71
g2734
sg64
(lp2741
g57
(g66
g59
NtRp2742
(dp2743
g62
(dp2744
g70
I3
ssg71
Nsg64
(lp2745
g57
(g73
g59
NtRp2746
(dp2747
g62
(dp2748
sg71
g2742
sg64
(lp2749
g57
(g78
g59
NtRp2750
(dp2751
g62
(dp2752
sg71
g2746
sg64
(lp2753
g57
(g58
g59
NtRp2754
(dp2755
g62
(dp2756
g70
I3
ssg71
g2750
sg64
(lp2757
g1819
asbasbasbag57
(g73
g59
NtRp2758
(dp2759
g62
(dp2760
sg71
g2742
sg64
(lp2761
g57
(g78
g59
NtRp2762
(dp2763
g62
(dp2764
sg71
g2758
sg64
(lp2765
g57
(g58
g59
NtRp2766
(dp2767
g62
(dp2768
g70
I3
ssg71
g2762
sg64
(lp2769
g1832
asbasbasbag57
(g73
g59
NtRp2770
(dp2771
g62
(dp2772
sg71
g2742
sg64
(lp2773
g57
(g78
g59
NtRp2774
(dp2775
g62
(dp2776
sg71
g2770
sg64
(lp2777
g57
(g58
g59
NtRp2778
(dp2779
g62
(dp2780
g70
I3
ssg71
g2774
sg64
(lp2781
g1845
asbasbasbag57
(g73
g59
NtRp2782
(dp2783
g62
(dp2784
sg71
g2742
sg64
(lp2785
g57
(g78
g59
NtRp2786
(dp2787
g62
(dp2788
sg71
g2782
sg64
(lp2789
g57
(g58
g59
NtRp2790
(dp2791
g62
(dp2792
g70
I3
ssg71
g2786
sg64
(lp2793
g1858
asbasbasbag57
(g73
g59
NtRp2794
(dp2795
g62
(dp2796
sg71
g2742
sg64
(lp2797
g57
(g78
g59
NtRp2798
(dp2799
g62
(dp2800
sg71
g2794
sg64
(lp2801
g57
(g58
g59
NtRp2802
(dp2803
g62
(dp2804
g70
I3
ssg71
g2798
sg64
(lp2805
g1871
asbasbasbasbasbasbasbag57
(g73
g59
NtRp2806
(dp2807
g62
(dp2808
sg71
g2531
sg64
(lp2809
g57
(g78
g59
NtRp2810
(dp2811
g62
(dp2812
g82
g83
ssg71
g2806
sg64
(lp2813
g2139
asbag57
(g78
g59
NtRp2814
(dp2815
g62
(dp2816
g89
g90
ssg71
g2806
sg64
(lp2817
S':'
asbag57
(g78
g59
NtRp2818
(dp2819
g62
(dp2820
sg71
g2806
sg64
(lp2821
g57
(g58
g59
NtRp2822
(dp2823
g62
(dp2824
g70
I4
ssg71
g2818
sg64
(lp2825
g57
(g66
g59
NtRp2826
(dp2827
g62
(dp2828
g70
I3
ssg71
Nsg64
(lp2829
g57
(g73
g59
NtRp2830
(dp2831
g62
(dp2832
sg71
g2826
sg64
(lp2833
g57
(g78
g59
NtRp2834
(dp2835
g62
(dp2836
sg71
g2830
sg64
(lp2837
g57
(g58
g59
NtRp2838
(dp2839
g62
(dp2840
g70
I3
ssg71
g2834
sg64
(lp2841
S'2'
asbasbasbag57
(g73
g59
NtRp2842
(dp2843
g62
(dp2844
sg71
g2826
sg64
(lp2845
g57
(g78
g59
NtRp2846
(dp2847
g62
(dp2848
sg71
g2842
sg64
(lp2849
g57
(g58
g59
NtRp2850
(dp2851
g62
(dp2852
g70
I3
ssg71
g2846
sg64
(lp2853
S'3'
asbasbasbag57
(g73
g59
NtRp2854
(dp2855
g62
(dp2856
sg71
g2826
sg64
(lp2857
g57
(g78
g59
NtRp2858
(dp2859
g62
(dp2860
sg71
g2854
sg64
(lp2861
g57
(g58
g59
NtRp2862
(dp2863
g62
(dp2864
g70
I3
ssg71
g2858
sg64
(lp2865
S'2'
asbasbasbag57
(g73
g59
NtRp2866
(dp2867
g62
(dp2868
sg71
g2826
sg64
(lp2869
g57
(g78
g59
NtRp2870
(dp2871
g62
(dp2872
sg71
g2866
sg64
(lp2873
g57
(g58
g59
NtRp2874
(dp2875
g62
(dp2876
g70
I3
ssg71
g2870
sg64
(lp2877
S'datetime.datetime(2012, 12, 17, 15, 3, 30)'
p2878
asbasbasbag57
(g73
g59
NtRp2879
(dp2880
g62
(dp2881
sg71
g2826
sg64
(lp2882
g57
(g78
g59
NtRp2883
(dp2884
g62
(dp2885
sg71
g2879
sg64
(lp2886
g57
(g58
g59
NtRp2887
(dp2888
g62
(dp2889
g70
I3
ssg71
g2883
sg64
(lp2890
g2217
asbasbasbasbasbasbasbasbasbasbasbag57
(g73
g59
NtRp2891
(dp2892
g62
(dp2893
sg71
g67
sg64
(lp2894
g57
(g78
g59
NtRp2895
(dp2896
g62
(dp2897
g82
g83
ssg71
g2891
sg64
(lp2898
S'is_https'
p2899
asbag57
(g78
g59
NtRp2900
(dp2901
g62
(dp2902
g89
g90
ssg71
g2891
sg64
(lp2903
S':'
asbag57
(g78
g59
NtRp2904
(dp2905
g62
(dp2906
sg71
g2891
sg64
(lp2907
g57
(g58
g59
NtRp2908
(dp2909
g62
(dp2910
g70
I5
ssg71
g2904
sg64
(lp2911
g100
asbasbasbag57
(g73
g59
NtRp2912
(dp2913
g62
(dp2914
sg71
g67
sg64
(lp2915
g57
(g78
g59
NtRp2916
(dp2917
g62
(dp2918
g82
g83
ssg71
g2912
sg64
(lp2919
S'is_local'
p2920
asbag57
(g78
g59
NtRp2921
(dp2922
g62
(dp2923
g89
g90
ssg71
g2912
sg64
(lp2924
S':'
asbag57
(g78
g59
NtRp2925
(dp2926
g62
(dp2927
sg71
g2912
sg64
(lp2928
g57
(g58
g59
NtRp2929
(dp2930
g62
(dp2931
g70
I5
ssg71
g2925
sg64
(lp2932
g2326
asbasbasbag57
(g73
g59
NtRp2933
(dp2934
g62
(dp2935
sg71
g67
sg64
(lp2936
g57
(g78
g59
NtRp2937
(dp2938
g62
(dp2939
g82
g83
ssg71
g2933
sg64
(lp2940
S'is_restful'
p2941
asbag57
(g78
g59
NtRp2942
(dp2943
g62
(dp2944
g89
g90
ssg71
g2933
sg64
(lp2945
S':'
asbag57
(g78
g59
NtRp2946
(dp2947
g62
(dp2948
sg71
g2933
sg64
(lp2949
g57
(g58
g59
NtRp2950
(dp2951
g62
(dp2952
g70
I5
ssg71
g2946
sg64
(lp2953
g100
asbasbasbag57
(g73
g59
NtRp2954
(dp2955
g62
(dp2956
sg71
g67
sg64
(lp2957
g57
(g78
g59
NtRp2958
(dp2959
g62
(dp2960
g82
g83
ssg71
g2954
sg64
(lp2961
S'now'
p2962
asbag57
(g78
g59
NtRp2963
(dp2964
g62
(dp2965
g89
g90
ssg71
g2954
sg64
(lp2966
S':'
asbag57
(g78
g59
NtRp2967
(dp2968
g62
(dp2969
sg71
g2954
sg64
(lp2970
g57
(g58
g59
NtRp2971
(dp2972
g62
(dp2973
g70
I5
ssg71
g2967
sg64
(lp2974
S'datetime.datetime(2013, 3, 13, 16, 38, 8, 315887)'
p2975
asbasbasbag57
(g73
g59
NtRp2976
(dp2977
g62
(dp2978
sg71
g67
sg64
(lp2979
g57
(g78
g59
NtRp2980
(dp2981
g62
(dp2982
g82
g83
ssg71
g2976
sg64
(lp2983
S'post_vars'
p2984
asbag57
(g78
g59
NtRp2985
(dp2986
g62
(dp2987
g89
g90
ssg71
g2976
sg64
(lp2988
S':'
asbag57
(g78
g59
NtRp2989
(dp2990
g62
(dp2991
sg71
g2976
sg64
(lp2992
g57
(g58
g59
NtRp2993
(dp2994
g62
(dp2995
g70
I5
ssg71
g2989
sg64
(lp2996
g57
(g66
g59
NtRp2997
(dp2998
g62
(dp2999
g70
I4
ssg71
Nsg64
(lp3000
sbasbasbasbag57
(g73
g59
NtRp3001
(dp3002
g62
(dp3003
sg71
g67
sg64
(lp3004
g57
(g78
g59
NtRp3005
(dp3006
g62
(dp3007
g82
g83
ssg71
g3001
sg64
(lp3008
S'raw_args'
p3009
asbag57
(g78
g59
NtRp3010
(dp3011
g62
(dp3012
g89
g90
ssg71
g3001
sg64
(lp3013
S':'
asbag57
(g78
g59
NtRp3014
(dp3015
g62
(dp3016
sg71
g3001
sg64
(lp3017
g57
(g58
g59
NtRp3018
(dp3019
g62
(dp3020
g70
I5
ssg71
g3014
sg64
(lp3021
S''
asbasbasbag57
(g73
g59
NtRp3022
(dp3023
g62
(dp3024
sg71
g67
sg64
(lp3025
g57
(g78
g59
NtRp3026
(dp3027
g62
(dp3028
g82
g83
ssg71
g3022
sg64
(lp3029
S'raw_extension'
p3030
asbag57
(g78
g59
NtRp3031
(dp3032
g62
(dp3033
g89
g90
ssg71
g3022
sg64
(lp3034
S':'
asbag57
(g78
g59
NtRp3035
(dp3036
g62
(dp3037
sg71
g3022
sg64
(lp3038
g57
(g58
g59
NtRp3039
(dp3040
g62
(dp3041
g70
I5
ssg71
g3035
sg64
(lp3042
S'None'
p3043
asbasbasbag57
(g73
g59
NtRp3044
(dp3045
g62
(dp3046
sg71
g67
sg64
(lp3047
g57
(g78
g59
NtRp3048
(dp3049
g62
(dp3050
g82
g83
ssg71
g3044
sg64
(lp3051
S'url'
p3052
asbag57
(g78
g59
NtRp3053
(dp3054
g62
(dp3055
g89
g90
ssg71
g3044
sg64
(lp3056
S':'
asbag57
(g78
g59
NtRp3057
(dp3058
g62
(dp3059
sg71
g3044
sg64
(lp3060
g57
(g58
g59
NtRp3061
(dp3062
g62
(dp3063
g70
I5
ssg71
g3057
sg64
(lp3064
g1893
asbasbasbag57
(g73
g59
NtRp3065
(dp3066
g62
(dp3067
sg71
g67
sg64
(lp3068
g57
(g78
g59
NtRp3069
(dp3070
g62
(dp3071
g82
g83
ssg71
g3065
sg64
(lp3072
S'utcnow'
p3073
asbag57
(g78
g59
NtRp3074
(dp3075
g62
(dp3076
g89
g90
ssg71
g3065
sg64
(lp3077
S':'
asbag57
(g78
g59
NtRp3078
(dp3079
g62
(dp3080
sg71
g3065
sg64
(lp3081
g57
(g58
g59
NtRp3082
(dp3083
g62
(dp3084
g70
I5
ssg71
g3078
sg64
(lp3085
S'datetime.datetime(2013, 3, 13, 21, 38, 8, 315984)'
p3086
asbasbasbag57
(g73
g59
NtRp3087
(dp3088
g62
(dp3089
sg71
g67
sg64
(lp3090
g57
(g78
g59
NtRp3091
(dp3092
g62
(dp3093
g82
g83
ssg71
g3087
sg64
(lp3094
S'uuid'
p3095
asbag57
(g78
g59
NtRp3096
(dp3097
g62
(dp3098
g89
g90
ssg71
g3087
sg64
(lp3099
S':'
asbag57
(g78
g59
NtRp3100
(dp3101
g62
(dp3102
sg71
g3087
sg64
(lp3103
g57
(g58
g59
NtRp3104
(dp3105
g62
(dp3106
g70
I5
ssg71
g3100
sg64
(lp3107
S'repositorio/127.0.0.1.2013-03-13.16-38-08.dd2fdc47-4557-4b2b-98dd-10710f44ea90'
p3108
asbasbasbag57
(g73
g59
NtRp3109
(dp3110
g62
(dp3111
sg71
g67
sg64
(lp3112
g57
(g78
g59
NtRp3113
(dp3114
g62
(dp3115
g82
g83
ssg71
g3109
sg64
(lp3116
S'vars'
p3117
asbag57
(g78
g59
NtRp3118
(dp3119
g62
(dp3120
g89
g90
ssg71
g3109
sg64
(lp3121
S':'
asbag57
(g78
g59
NtRp3122
(dp3123
g62
(dp3124
sg71
g3109
sg64
(lp3125
g57
(g58
g59
NtRp3126
(dp3127
g62
(dp3128
g70
I5
ssg71
g3122
sg64
(lp3129
g57
(g66
g59
NtRp3130
(dp3131
g62
(dp3132
g70
I4
ssg71
Nsg64
(lp3133
sbasbasbasbag57
(g73
g59
NtRp3134
(dp3135
g62
(dp3136
sg71
g67
sg64
(lp3137
g57
(g78
g59
NtRp3138
(dp3139
g62
(dp3140
g82
g83
ssg71
g3134
sg64
(lp3141
S'wsgi'
p3142
asbag57
(g78
g59
NtRp3143
(dp3144
g62
(dp3145
g89
g90
ssg71
g3134
sg64
(lp3146
S':'
asbag57
(g78
g59
NtRp3147
(dp3148
g62
(dp3149
sg71
g3134
sg64
(lp3150
g57
(g58
g59
NtRp3151
(dp3152
g62
(dp3153
g70
I5
ssg71
g3147
sg64
(lp3154
g57
(g66
g59
NtRp3155
(dp3156
g62
(dp3157
g70
I4
ssg71
Nsg64
(lp3158
g57
(g73
g59
NtRp3159
(dp3160
g62
(dp3161
sg71
g3155
sg64
(lp3162
g57
(g78
g59
NtRp3163
(dp3164
g62
(dp3165
g82
g83
ssg71
g3159
sg64
(lp3166
S'environ'
p3167
asbag57
(g78
g59
NtRp3168
(dp3169
g62
(dp3170
g89
g90
ssg71
g3159
sg64
(lp3171
S':'
asbag57
(g78
g59
NtRp3172
(dp3173
g62
(dp3174
sg71
g3159
sg64
(lp3175
g57
(g58
g59
NtRp3176
(dp3177
g62
(dp3178
g70
I4
ssg71
g3172
sg64
(lp3179
g57
(g66
g59
NtRp3180
(dp3181
g62
(dp3182
g70
I3
ssg71
Nsg64
(lp3183
g57
(g73
g59
NtRp3184
(dp3185
g62
(dp3186
sg71
g3180
sg64
(lp3187
g57
(g78
g59
NtRp3188
(dp3189
g62
(dp3190
g82
g83
ssg71
g3184
sg64
(lp3191
S'HTTP_ACCEPT'
p3192
asbag57
(g78
g59
NtRp3193
(dp3194
g62
(dp3195
g89
g90
ssg71
g3184
sg64
(lp3196
S':'
asbag57
(g78
g59
NtRp3197
(dp3198
g62
(dp3199
sg71
g3184
sg64
(lp3200
g57
(g58
g59
NtRp3201
(dp3202
g62
(dp3203
g70
I3
ssg71
g3197
sg64
(lp3204
g1585
asbasbasbag57
(g73
g59
NtRp3205
(dp3206
g62
(dp3207
sg71
g3180
sg64
(lp3208
g57
(g78
g59
NtRp3209
(dp3210
g62
(dp3211
g82
g83
ssg71
g3205
sg64
(lp3212
S'HTTP_ACCEPT_ENCODING'
p3213
asbag57
(g78
g59
NtRp3214
(dp3215
g62
(dp3216
g89
g90
ssg71
g3205
sg64
(lp3217
S':'
asbag57
(g78
g59
NtRp3218
(dp3219
g62
(dp3220
sg71
g3205
sg64
(lp3221
g57
(g58
g59
NtRp3222
(dp3223
g62
(dp3224
g70
I3
ssg71
g3218
sg64
(lp3225
g1607
asbasbasbag57
(g73
g59
NtRp3226
(dp3227
g62
(dp3228
sg71
g3180
sg64
(lp3229
g57
(g78
g59
NtRp3230
(dp3231
g62
(dp3232
g82
g83
ssg71
g3226
sg64
(lp3233
S'HTTP_ACCEPT_LANGUAGE'
p3234
asbag57
(g78
g59
NtRp3235
(dp3236
g62
(dp3237
g89
g90
ssg71
g3226
sg64
(lp3238
S':'
asbag57
(g78
g59
NtRp3239
(dp3240
g62
(dp3241
sg71
g3226
sg64
(lp3242
g57
(g58
g59
NtRp3243
(dp3244
g62
(dp3245
g70
I3
ssg71
g3239
sg64
(lp3246
g1629
asbasbasbag57
(g73
g59
NtRp3247
(dp3248
g62
(dp3249
sg71
g3180
sg64
(lp3250
g57
(g78
g59
NtRp3251
(dp3252
g62
(dp3253
g82
g83
ssg71
g3247
sg64
(lp3254
S'HTTP_CONNECTION'
p3255
asbag57
(g78
g59
NtRp3256
(dp3257
g62
(dp3258
g89
g90
ssg71
g3247
sg64
(lp3259
S':'
asbag57
(g78
g59
NtRp3260
(dp3261
g62
(dp3262
sg71
g3247
sg64
(lp3263
g57
(g58
g59
NtRp3264
(dp3265
g62
(dp3266
g70
I3
ssg71
g3260
sg64
(lp3267
g1651
asbasbasbag57
(g73
g59
NtRp3268
(dp3269
g62
(dp3270
sg71
g3180
sg64
(lp3271
g57
(g78
g59
NtRp3272
(dp3273
g62
(dp3274
g82
g83
ssg71
g3268
sg64
(lp3275
S'HTTP_COOKIE'
p3276
asbag57
(g78
g59
NtRp3277
(dp3278
g62
(dp3279
g89
g90
ssg71
g3268
sg64
(lp3280
S':'
asbag57
(g78
g59
NtRp3281
(dp3282
g62
(dp3283
sg71
g3268
sg64
(lp3284
g57
(g58
g59
NtRp3285
(dp3286
g62
(dp3287
g70
I3
ssg71
g3281
sg64
(lp3288
g1673
asbasbasbag57
(g73
g59
NtRp3289
(dp3290
g62
(dp3291
sg71
g3180
sg64
(lp3292
g57
(g78
g59
NtRp3293
(dp3294
g62
(dp3295
g82
g83
ssg71
g3289
sg64
(lp3296
S'HTTP_HOST'
p3297
asbag57
(g78
g59
NtRp3298
(dp3299
g62
(dp3300
g89
g90
ssg71
g3289
sg64
(lp3301
S':'
asbag57
(g78
g59
NtRp3302
(dp3303
g62
(dp3304
sg71
g3289
sg64
(lp3305
g57
(g58
g59
NtRp3306
(dp3307
g62
(dp3308
g70
I3
ssg71
g3302
sg64
(lp3309
g1695
asbasbasbag57
(g73
g59
NtRp3310
(dp3311
g62
(dp3312
sg71
g3180
sg64
(lp3313
g57
(g78
g59
NtRp3314
(dp3315
g62
(dp3316
g82
g83
ssg71
g3310
sg64
(lp3317
S'HTTP_REFERER'
p3318
asbag57
(g78
g59
NtRp3319
(dp3320
g62
(dp3321
g89
g90
ssg71
g3310
sg64
(lp3322
S':'
asbag57
(g78
g59
NtRp3323
(dp3324
g62
(dp3325
sg71
g3310
sg64
(lp3326
g57
(g58
g59
NtRp3327
(dp3328
g62
(dp3329
g70
I3
ssg71
g3323
sg64
(lp3330
g1717
asbasbasbag57
(g73
g59
NtRp3331
(dp3332
g62
(dp3333
sg71
g3180
sg64
(lp3334
g57
(g78
g59
NtRp3335
(dp3336
g62
(dp3337
g82
g83
ssg71
g3331
sg64
(lp3338
S'HTTP_USER_AGENT'
p3339
asbag57
(g78
g59
NtRp3340
(dp3341
g62
(dp3342
g89
g90
ssg71
g3331
sg64
(lp3343
S':'
asbag57
(g78
g59
NtRp3344
(dp3345
g62
(dp3346
sg71
g3331
sg64
(lp3347
g57
(g58
g59
NtRp3348
(dp3349
g62
(dp3350
g70
I3
ssg71
g3344
sg64
(lp3351
g1739
asbasbasbag57
(g73
g59
NtRp3352
(dp3353
g62
(dp3354
sg71
g3180
sg64
(lp3355
g57
(g78
g59
NtRp3356
(dp3357
g62
(dp3358
g82
g83
ssg71
g3352
sg64
(lp3359
S'PATH_INFO'
p3360
asbag57
(g78
g59
NtRp3361
(dp3362
g62
(dp3363
g89
g90
ssg71
g3352
sg64
(lp3364
S':'
asbag57
(g78
g59
NtRp3365
(dp3366
g62
(dp3367
sg71
g3352
sg64
(lp3368
g57
(g58
g59
NtRp3369
(dp3370
g62
(dp3371
g70
I3
ssg71
g3365
sg64
(lp3372
g1893
asbasbasbag57
(g73
g59
NtRp3373
(dp3374
g62
(dp3375
sg71
g3180
sg64
(lp3376
g57
(g78
g59
NtRp3377
(dp3378
g62
(dp3379
g82
g83
ssg71
g3373
sg64
(lp3380
S'QUERY_STRING'
p3381
asbag57
(g78
g59
NtRp3382
(dp3383
g62
(dp3384
g89
g90
ssg71
g3373
sg64
(lp3385
S':'
asbag57
(g78
g59
NtRp3386
(dp3387
g62
(dp3388
sg71
g3373
sg64
(lp3389
g57
(g58
g59
NtRp3390
(dp3391
g62
(dp3392
g70
I3
ssg71
g3386
sg64
(lp3393
S''
asbasbasbag57
(g73
g59
NtRp3394
(dp3395
g62
(dp3396
sg71
g3180
sg64
(lp3397
g57
(g78
g59
NtRp3398
(dp3399
g62
(dp3400
g82
g83
ssg71
g3394
sg64
(lp3401
S'REMOTE_ADDR'
p3402
asbag57
(g78
g59
NtRp3403
(dp3404
g62
(dp3405
g89
g90
ssg71
g3394
sg64
(lp3406
S':'
asbag57
(g78
g59
NtRp3407
(dp3408
g62
(dp3409
sg71
g3394
sg64
(lp3410
g57
(g58
g59
NtRp3411
(dp3412
g62
(dp3413
g70
I3
ssg71
g3407
sg64
(lp3414
g212
asbasbasbag57
(g73
g59
NtRp3415
(dp3416
g62
(dp3417
sg71
g3180
sg64
(lp3418
g57
(g78
g59
NtRp3419
(dp3420
g62
(dp3421
g82
g83
ssg71
g3415
sg64
(lp3422
S'REMOTE_PORT'
p3423
asbag57
(g78
g59
NtRp3424
(dp3425
g62
(dp3426
g89
g90
ssg71
g3415
sg64
(lp3427
S':'
asbag57
(g78
g59
NtRp3428
(dp3429
g62
(dp3430
sg71
g3415
sg64
(lp3431
g57
(g58
g59
NtRp3432
(dp3433
g62
(dp3434
g70
I3
ssg71
g3428
sg64
(lp3435
g1957
asbasbasbag57
(g73
g59
NtRp3436
(dp3437
g62
(dp3438
sg71
g3180
sg64
(lp3439
g57
(g78
g59
NtRp3440
(dp3441
g62
(dp3442
g82
g83
ssg71
g3436
sg64
(lp3443
S'REQUEST_METHOD'
p3444
asbag57
(g78
g59
NtRp3445
(dp3446
g62
(dp3447
g89
g90
ssg71
g3436
sg64
(lp3448
S':'
asbag57
(g78
g59
NtRp3449
(dp3450
g62
(dp3451
sg71
g3436
sg64
(lp3452
g57
(g58
g59
NtRp3453
(dp3454
g62
(dp3455
g70
I3
ssg71
g3449
sg64
(lp3456
g1979
asbasbasbag57
(g73
g59
NtRp3457
(dp3458
g62
(dp3459
sg71
g3180
sg64
(lp3460
g57
(g78
g59
NtRp3461
(dp3462
g62
(dp3463
g82
g83
ssg71
g3457
sg64
(lp3464
S'REQUEST_URI'
p3465
asbag57
(g78
g59
NtRp3466
(dp3467
g62
(dp3468
g89
g90
ssg71
g3457
sg64
(lp3469
S':'
asbag57
(g78
g59
NtRp3470
(dp3471
g62
(dp3472
sg71
g3457
sg64
(lp3473
g57
(g58
g59
NtRp3474
(dp3475
g62
(dp3476
g70
I3
ssg71
g3470
sg64
(lp3477
g1893
asbasbasbag57
(g73
g59
NtRp3478
(dp3479
g62
(dp3480
sg71
g3180
sg64
(lp3481
g57
(g78
g59
NtRp3482
(dp3483
g62
(dp3484
g82
g83
ssg71
g3478
sg64
(lp3485
S'SCRIPT_NAME'
p3486
asbag57
(g78
g59
NtRp3487
(dp3488
g62
(dp3489
g89
g90
ssg71
g3478
sg64
(lp3490
S':'
asbag57
(g78
g59
NtRp3491
(dp3492
g62
(dp3493
sg71
g3478
sg64
(lp3494
g57
(g58
g59
NtRp3495
(dp3496
g62
(dp3497
g70
I3
ssg71
g3491
sg64
(lp3498
S''
asbasbasbag57
(g73
g59
NtRp3499
(dp3500
g62
(dp3501
sg71
g3180
sg64
(lp3502
g57
(g78
g59
NtRp3503
(dp3504
g62
(dp3505
g82
g83
ssg71
g3499
sg64
(lp3506
S'SERVER_NAME'
p3507
asbag57
(g78
g59
NtRp3508
(dp3509
g62
(dp3510
g89
g90
ssg71
g3499
sg64
(lp3511
S':'
asbag57
(g78
g59
NtRp3512
(dp3513
g62
(dp3514
sg71
g3499
sg64
(lp3515
g57
(g58
g59
NtRp3516
(dp3517
g62
(dp3518
g70
I3
ssg71
g3512
sg64
(lp3519
g2043
asbasbasbag57
(g73
g59
NtRp3520
(dp3521
g62
(dp3522
sg71
g3180
sg64
(lp3523
g57
(g78
g59
NtRp3524
(dp3525
g62
(dp3526
g82
g83
ssg71
g3520
sg64
(lp3527
S'SERVER_PORT'
p3528
asbag57
(g78
g59
NtRp3529
(dp3530
g62
(dp3531
g89
g90
ssg71
g3520
sg64
(lp3532
S':'
asbag57
(g78
g59
NtRp3533
(dp3534
g62
(dp3535
sg71
g3520
sg64
(lp3536
g57
(g58
g59
NtRp3537
(dp3538
g62
(dp3539
g70
I3
ssg71
g3533
sg64
(lp3540
g2065
asbasbasbag57
(g73
g59
NtRp3541
(dp3542
g62
(dp3543
sg71
g3180
sg64
(lp3544
g57
(g78
g59
NtRp3545
(dp3546
g62
(dp3547
g82
g83
ssg71
g3541
sg64
(lp3548
S'SERVER_PROTOCOL'
p3549
asbag57
(g78
g59
NtRp3550
(dp3551
g62
(dp3552
g89
g90
ssg71
g3541
sg64
(lp3553
S':'
asbag57
(g78
g59
NtRp3554
(dp3555
g62
(dp3556
sg71
g3541
sg64
(lp3557
g57
(g58
g59
NtRp3558
(dp3559
g62
(dp3560
g70
I3
ssg71
g3554
sg64
(lp3561
g2087
asbasbasbag57
(g73
g59
NtRp3562
(dp3563
g62
(dp3564
sg71
g3180
sg64
(lp3565
g57
(g78
g59
NtRp3566
(dp3567
g62
(dp3568
g82
g83
ssg71
g3562
sg64
(lp3569
S'SERVER_SOFTWARE'
p3570
asbag57
(g78
g59
NtRp3571
(dp3572
g62
(dp3573
g89
g90
ssg71
g3562
sg64
(lp3574
S':'
asbag57
(g78
g59
NtRp3575
(dp3576
g62
(dp3577
sg71
g3562
sg64
(lp3578
g57
(g58
g59
NtRp3579
(dp3580
g62
(dp3581
g70
I3
ssg71
g3575
sg64
(lp3582
g2109
asbasbasbag57
(g73
g59
NtRp3583
(dp3584
g62
(dp3585
sg71
g3180
sg64
(lp3586
g57
(g78
g59
NtRp3587
(dp3588
g62
(dp3589
g82
g83
ssg71
g3583
sg64
(lp3590
S'wsgi.errors'
p3591
asbag57
(g78
g59
NtRp3592
(dp3593
g62
(dp3594
g89
g90
ssg71
g3583
sg64
(lp3595
S':'
asbag57
(g78
g59
NtRp3596
(dp3597
g62
(dp3598
sg71
g3583
sg64
(lp3599
g57
(g58
g59
NtRp3600
(dp3601
g62
(dp3602
g70
I3
ssg71
g3596
sg64
(lp3603
S"<open file '<stderr>', mode 'w' at 0xb75500d0>"
p3604
asbasbasbag57
(g73
g59
NtRp3605
(dp3606
g62
(dp3607
sg71
g3180
sg64
(lp3608
g57
(g78
g59
NtRp3609
(dp3610
g62
(dp3611
g82
g83
ssg71
g3605
sg64
(lp3612
S'wsgi.file_wrapper'
p3613
asbag57
(g78
g59
NtRp3614
(dp3615
g62
(dp3616
g89
g90
ssg71
g3605
sg64
(lp3617
S':'
asbag57
(g78
g59
NtRp3618
(dp3619
g62
(dp3620
sg71
g3605
sg64
(lp3621
g57
(g58
g59
NtRp3622
(dp3623
g62
(dp3624
g70
I3
ssg71
g3618
sg64
(lp3625
S'<class wsgiref.util.FileWrapper at 0x983083c>'
p3626
asbasbasbag57
(g73
g59
NtRp3627
(dp3628
g62
(dp3629
sg71
g3180
sg64
(lp3630
g57
(g78
g59
NtRp3631
(dp3632
g62
(dp3633
g82
g83
ssg71
g3627
sg64
(lp3634
S'wsgi.input'
p3635
asbag57
(g78
g59
NtRp3636
(dp3637
g62
(dp3638
g89
g90
ssg71
g3627
sg64
(lp3639
S':'
asbag57
(g78
g59
NtRp3640
(dp3641
g62
(dp3642
sg71
g3627
sg64
(lp3643
g57
(g58
g59
NtRp3644
(dp3645
g62
(dp3646
g70
I3
ssg71
g3640
sg64
(lp3647
S'<cStringIO.StringO object at 0xaf406f60>'
p3648
asbasbasbag57
(g73
g59
NtRp3649
(dp3650
g62
(dp3651
sg71
g3180
sg64
(lp3652
g57
(g78
g59
NtRp3653
(dp3654
g62
(dp3655
g82
g83
ssg71
g3649
sg64
(lp3656
S'wsgi.multiprocess'
p3657
asbag57
(g78
g59
NtRp3658
(dp3659
g62
(dp3660
g89
g90
ssg71
g3649
sg64
(lp3661
S':'
asbag57
(g78
g59
NtRp3662
(dp3663
g62
(dp3664
sg71
g3649
sg64
(lp3665
g57
(g58
g59
NtRp3666
(dp3667
g62
(dp3668
g70
I3
ssg71
g3662
sg64
(lp3669
g100
asbasbasbag57
(g73
g59
NtRp3670
(dp3671
g62
(dp3672
sg71
g3180
sg64
(lp3673
g57
(g78
g59
NtRp3674
(dp3675
g62
(dp3676
g82
g83
ssg71
g3670
sg64
(lp3677
S'wsgi.multithread'
p3678
asbag57
(g78
g59
NtRp3679
(dp3680
g62
(dp3681
g89
g90
ssg71
g3670
sg64
(lp3682
S':'
asbag57
(g78
g59
NtRp3683
(dp3684
g62
(dp3685
sg71
g3670
sg64
(lp3686
g57
(g58
g59
NtRp3687
(dp3688
g62
(dp3689
g70
I3
ssg71
g3683
sg64
(lp3690
g2326
asbasbasbag57
(g73
g59
NtRp3691
(dp3692
g62
(dp3693
sg71
g3180
sg64
(lp3694
g57
(g78
g59
NtRp3695
(dp3696
g62
(dp3697
g82
g83
ssg71
g3691
sg64
(lp3698
S'wsgi.run_once'
p3699
asbag57
(g78
g59
NtRp3700
(dp3701
g62
(dp3702
g89
g90
ssg71
g3691
sg64
(lp3703
S':'
asbag57
(g78
g59
NtRp3704
(dp3705
g62
(dp3706
sg71
g3691
sg64
(lp3707
g57
(g58
g59
NtRp3708
(dp3709
g62
(dp3710
g70
I3
ssg71
g3704
sg64
(lp3711
g100
asbasbasbag57
(g73
g59
NtRp3712
(dp3713
g62
(dp3714
sg71
g3180
sg64
(lp3715
g57
(g78
g59
NtRp3716
(dp3717
g62
(dp3718
g82
g83
ssg71
g3712
sg64
(lp3719
S'wsgi.url_scheme'
p3720
asbag57
(g78
g59
NtRp3721
(dp3722
g62
(dp3723
g89
g90
ssg71
g3712
sg64
(lp3724
S':'
asbag57
(g78
g59
NtRp3725
(dp3726
g62
(dp3727
sg71
g3712
sg64
(lp3728
g57
(g58
g59
NtRp3729
(dp3730
g62
(dp3731
g70
I3
ssg71
g3725
sg64
(lp3732
g2369
asbasbasbag57
(g73
g59
NtRp3733
(dp3734
g62
(dp3735
sg71
g3180
sg64
(lp3736
g57
(g78
g59
NtRp3737
(dp3738
g62
(dp3739
g82
g83
ssg71
g3733
sg64
(lp3740
S'wsgi.version'
p3741
asbag57
(g78
g59
NtRp3742
(dp3743
g62
(dp3744
g89
g90
ssg71
g3733
sg64
(lp3745
S':'
asbag57
(g78
g59
NtRp3746
(dp3747
g62
(dp3748
sg71
g3733
sg64
(lp3749
g57
(g58
g59
NtRp3750
(dp3751
g62
(dp3752
g70
I3
ssg71
g3746
sg64
(lp3753
S'1'
asbasbasbasbasbasbasbasbasbasbasbasbasbsS'frames'
p3754
(lp3755
(dp3756
S'file'
p3757
S'/home/python/P\xc3\xbablico/web2py/web2py/gluon/restricted.py'
p3758
sS'dump'
p3759
(dp3760
S'environment'
p3761
S"{'A': <class 'gluon.html.A'>, 'B': <class 'gluon.html.B'>, 'BEAUTIFY': <class 'gluon.html.BEAUTIFY'>, 'BODY': <class 'gluon.html.BODY'>, 'BR': <class 'gluon.html.BR'>, 'BUTTON': <class 'gluon.html.BUTTON'>, 'CAT': <class 'gluon.html.CAT'>, 'CENTER': <class 'gluon.html.CENTER'>, 'CLEANUP': <class 'gluon.validators.CLEANUP'>, 'CODE': <class 'gluon.html.CODE'>, ...}"
p3762
sS'ccode'
p3763
S'<code object <module> at 0xaf90fc38, file "/home...ions/repositorio/controllers/default.py", line 7>'
p3764
ssS'lnum'
p3765
I212
sS'lines'
p3766
(dp3767
I207
S'    try:'
p3768
sI208
S'        if isinstance(code, types.CodeType):'
p3769
sI209
S'            ccode = code'
p3770
sI210
S'        else:'
p3771
sI211
S'            ccode = compile2(code, layer)'
p3772
sI212
S'        exec ccode in environment'
p3773
sI213
S'    except HTTP:'
p3774
sI214
S'        raise'
p3775
sI215
S'    except RestrictedError:'
p3776
sI216
S'        # do not encapsulate (obfuscate) the original RestrictedError'
p3777
ssS'call'
p3778
S'(code=\'#!/usr/bin/python\\n# -*- coding: utf-8 -*-\\n\\n# fro...    """)\\n\\nresponse._vars=response._caller(index)\\n\', environment={\'A\': <class \'gluon.html.A\'>, \'B\': <class \'gluon.html.B\'>, \'BEAUTIFY\': <class \'gluon.html.BEAUTIFY\'>, \'BODY\': <class \'gluon.html.BODY\'>, \'BR\': <class \'gluon.html.BR\'>, \'BUTTON\': <class \'gluon.html.BUTTON\'>, \'CAT\': <class \'gluon.html.CAT\'>, \'CENTER\': <class \'gluon.html.CENTER\'>, \'CLEANUP\': <class \'gluon.validators.CLEANUP\'>, \'CODE\': <class \'gluon.html.CODE\'>, ...}, layer=\'/home/python/P\\xc3\\xbablico/web2py/web2py/applications/repositorio/controllers/default.py\')'
p3779
sS'func'
p3780
S'restricted'
p3781
sa(dp3782
g3757
S'/home/python/P\xc3\xbablico/web2py/web2py/applications/repositorio/controllers/default.py'
p3783
sg3759
(dp3784
sg3765
I90
sg3766
(dp3785
I79
S'    # )'
p3786
sI80
S''
sI81
S'    return XML("""'
p3787
sI82
S'<div class="display_box" align="left">'
p3788
sI83
S''
sI84
S'<img src="user_img/srinivas.jpg" style="width:25px; float:left; margin-right:6px" />'
p3789
sI85
S'<a href="#" class=\'addname\' title=\'Srinivas&nbsp;Tamada\'>'
p3790
sI86
S'<b>s</b>riniva<b>s</b>&nbsp;Tamada </a><br/>'
p3791
sI87
S'<span style="font-size:9px; color:#999999">India</span></div>'
p3792
sI88
S'    """)'
p3793
ssg3778
S'()'
p3794
sg3780
S'<module>'
p3795
sa(dp3796
g3757
S'/home/python/P\xc3\xbablico/web2py/web2py/gluon/globals.py'
p3797
sg3759
(dp3798
S'self'
p3799
S'undefined'
p3800
sS'f'
S'<function index>'
p3801
ssg3765
I193
sg3766
(dp3802
I192
S'        self._vars = None'
p3803
sI193
S'        self._caller = lambda f: f()'
p3804
sI194
S'        self._view_environment = None'
p3805
sI195
S'        self._custom_commit = None'
p3806
sI196
S'        self._custom_rollback = None'
p3807
sI197
S''
sI188
S'        self.menu = []             # used by the default view layout'
p3808
sI189
S'        self.files = []            # used by web2py_ajax.html'
p3809
sI190
S'        self.generic_patterns = []  # patterns to allow generic views'
p3810
sI191
S"        self.delimiters = ('{{', '}}')"
p3811
ssg3778
S'(f=<function index>)'
p3812
sg3780
S'<lambda>'
p3813
sa(dp3814
g3757
S'/home/python/P\xc3\xbablico/web2py/web2py/applications/repositorio/controllers/default.py'
p3815
sg3759
(dp3816
S'home'
p3817
g3800
sS'Home'
p3818
S"<class 'applications.repositorio.modules.handlers.home.Home'>"
p3819
ssg3765
I18
sg3766
(dp3820
I13
S'#@auth.requires_login()'
p3821
sI14
S'#@cache(request.env.path_info, time_expire=time_expire, cache_model=cache.ram)'
p3822
sI15
S'def index():'
p3823
sI16
S"    #redirect(URL('home', 'index'))"
p3824
sI17
S'    from handlers.home import Home'
p3825
sI18
S"    home = Home(['featured', 'featured_members', 'ads', 'homeblocks', 'articles'])"
p3826
sI19
S'    home.context.left_sidebar_enabled = True'
p3827
sI20
S'    home.context.right_sidebar_enabled = True'
p3828
sI21
S'    home.context.header_enabled = True'
p3829
sI22
S'    home.context.toparea_enabled = True'
p3830
ssg3778
S'()'
p3831
sg3780
S'index'
p3832
sa(dp3833
g3757
S'/home/python/P\xc3\xbablico/web2py/web2py/applications/repositorio/modules/handlers/base.py'
p3834
sg3759
(dp3835
S'self'
p3836
S'<applications.repositorio.modules.handlers.home.Home object>'
p3837
sS'self.start'
p3838
S'<bound method Home.start of <applications.repositorio.modules.handlers.home.Home object>>'
p3839
ssg3765
I32
sg3766
(dp3840
I32
S'        self.start()'
p3841
sI33
S'        self.build()'
p3842
sI34
S'        self.pre_render()'
p3843
sI35
S''
sI36
S'        # aditional hooks'
p3844
sI27
S'        self.context.internalpages = []'
p3845
sI28
S'        self.theme = theme'
p3846
sI29
S'        self.view = view'
p3847
sI30
S''
sI31
S'        # hooks call'
p3848
ssg3778
S"(self=<applications.repositorio.modules.handlers.home.Home object>, hooks=['featured', 'featured_members', 'ads', 'homeblocks', 'articles'], theme='%(name)s/', view='app/generic', meta=None, context=None)"
p3849
sg3780
g50
sa(dp3850
g3757
S'/home/python/P\xc3\xbablico/web2py/web2py/applications/repositorio/modules/handlers/home.py'
p3851
sg3759
(dp3852
S'Category'
p3853
S"<class 'applications.repositorio.modules.datamodel.article.Category'>"
p3854
sS'ContentType'
p3855
S"<class 'applications.repositorio.modules.datamodel.article.ContentType'>"
p3856
sS'Ads'
p3857
S"<class 'applications.repositorio.modules.datamodel.ads.Ads'>"
p3858
sS'DataBase'
p3859
S"<class 'applications.repositorio.modules.movuca.DataBase'>"
p3860
sS'self'
p3861
S'<applications.repositorio.modules.handlers.home.Home object>'
p3862
sS'Page'
p3863
S"<class 'applications.repositorio.modules.datamodel.page.Page'>"
p3864
sS'User'
p3865
S"<class 'applications.repositorio.modules.movuca.Access'>"
p3866
sS'Article'
p3867
S"<class 'applications.repositorio.modules.datamodel.article.Article'>"
p3868
sS'self.db'
p3869
g3800
ssg3765
I12
sg3766
(dp3870
I7
S'    def start(self):'
p3871
sI8
S'        from movuca import DataBase, User'
p3872
sI9
S'        from datamodel.article import Article, ContentType, Category'
p3873
sI10
S'        from datamodel.page import Page'
p3874
sI11
S'        from datamodel.ads import Ads'
p3875
sI12
S'        self.db = DataBase([User, ContentType, Category, Article, Ads, Page])'
p3876
sI13
S''
sI14
S'    def pre_render(self):'
p3877
sI15
S'        # obrigatorio ter um config, um self.response|request, que tenha um render self.response.render'
p3878
sI16
S'        self.response = self.db.response'
p3879
ssg3778
S'(self=<applications.repositorio.modules.handlers.home.Home object>)'
p3880
sg3780
S'start'
p3881
sa(dp3882
g3757
S'/home/python/P\xc3\xbablico/web2py/web2py/applications/repositorio/modules/movuca.py'
p3883
sg3759
(dp3884
S'self.config.db'
p3885
S'None'
p3886
sS'self'
p3887
S'<DAL db_uid="613140a5ee924e39b9bd2357487433cd">'
p3888
sS'self.config.db.uri'
p3889
g3800
sS'migrate_enabled'
p3890
g3800
sS'self.config.db.migrate_enabled'
p3891
g3800
sS'global DAL'
p3892
S"<class 'gluon.dal.DAL'>"
p3893
sS'check_reserved'
p3894
g3800
sS'self.config'
p3895
S'<applications.repositorio.modules.config.Config object>'
p3896
sS'DAL.__init__'
p3897
S'<unbound method DAL.__init__>'
p3898
ssg3765
I35
sg3766
(dp3899
I32
S'        self.config = Config()'
p3900
sI33
S'        if not current.request.env.web2py_runtime_gae:'
p3901
sI34
S'            self._LAZY_TABLES = [] # needed because of lazydal'
p3902
sI35
S'            DAL.__init__(self, self.config.db.uri,'
p3903
sI36
S'                         migrate_enabled=self.config.db.migrate_enabled,'
p3904
sI37
S"                         check_reserved=['all'])"
p3905
sI38
S'            #session does not works well in db (why?)'
p3906
sI39
S'            #current.session.connect(current.request, current.response, db=self)'
p3907
sI30
S'        self.get_image = current.get_image'
p3908
sI31
S'        from config import Config'
p3909
ssg3778
S'(self=<DAL db_uid="613140a5ee924e39b9bd2357487433cd">, classes=[<class \'applications.repositorio.modules.movuca.Access\'>, <class \'applications.repositorio.modules.datamodel.article.ContentType\'>, <class \'applications.repositorio.modules.datamodel.article.Category\'>, <class \'applications.repositorio.modules.datamodel.article.Article\'>, <class \'applications.repositorio.modules.datamodel.ads.Ads\'>, <class \'applications.repositorio.modules.datamodel.page.Page\'>])'
p3910
sg3780
g50
sasS'pyver'
p3911
S'Python 2.7.3: /usr/bin/python'
p3912
sS'session'
p3913
g57
(g58
g59
NtRp3914
(dp3915
g62
(dp3916
sg64
(lp3917
g57
(g66
g59
NtRp3918
(dp3919
g62
(dp3920
g70
I5
ssg71
Nsg64
(lp3921
g57
(g73
g59
NtRp3922
(dp3923
g62
(dp3924
sg71
g3918
sg64
(lp3925
g57
(g78
g59
NtRp3926
(dp3927
g62
(dp3928
g82
g83
ssg71
g3922
sg64
(lp3929
S'cart'
p3930
asbag57
(g78
g59
NtRp3931
(dp3932
g62
(dp3933
g89
g90
ssg71
g3922
sg64
(lp3934
S':'
asbag57
(g78
g59
NtRp3935
(dp3936
g62
(dp3937
sg71
g3922
sg64
(lp3938
g57
(g58
g59
NtRp3939
(dp3940
g62
(dp3941
g70
I5
ssg71
g3935
sg64
(lp3942
g57
(g66
g59
NtRp3943
(dp3944
g62
(dp3945
g70
I4
ssg71
Nsg64
(lp3946
sbasbasbasbasbasbsS'etype'
p3947
S"<type 'exceptions.AttributeError'>"
p3948
sS'date'
p3949
S'Wed Mar 13 16:38:10 2013'
p3950
sS'response'
p3951
g57
(g58
g59
NtRp3952
(dp3953
g62
(dp3954
sg64
(lp3955
g57
(g66
g59
NtRp3956
(dp3957
g62
(dp3958
g70
I5
ssg71
Nsg64
(lp3959
g57
(g73
g59
NtRp3960
(dp3961
g62
(dp3962
sg71
g3956
sg64
(lp3963
g57
(g78
g59
NtRp3964
(dp3965
g62
(dp3966
g82
g83
ssg71
g3960
sg64
(lp3967
g155
asbag57
(g78
g59
NtRp3968
(dp3969
g62
(dp3970
g89
g90
ssg71
g3960
sg64
(lp3971
S':'
asbag57
(g78
g59
NtRp3972
(dp3973
g62
(dp3974
sg71
g3960
sg64
(lp3975
g57
(g58
g59
NtRp3976
(dp3977
g62
(dp3978
g70
I5
ssg71
g3972
sg64
(lp3979
S'<cStringIO.StringO object at 0xafbb74a0>'
p3980
asbasbasbag57
(g73
g59
NtRp3981
(dp3982
g62
(dp3983
sg71
g3956
sg64
(lp3984
g57
(g78
g59
NtRp3985
(dp3986
g62
(dp3987
g82
g83
ssg71
g3981
sg64
(lp3988
g243
asbag57
(g78
g59
NtRp3989
(dp3990
g62
(dp3991
g89
g90
ssg71
g3981
sg64
(lp3992
S':'
asbag57
(g78
g59
NtRp3993
(dp3994
g62
(dp3995
sg71
g3981
sg64
(lp3996
g57
(g58
g59
NtRp3997
(dp3998
g62
(dp3999
g70
I5
ssg71
g3993
sg64
(lp4000
g57
(g66
g59
NtRp4001
(dp4002
g62
(dp4003
g70
I4
ssg71
Nsg64
(lp4004
g57
(g73
g59
NtRp4005
(dp4006
g62
(dp4007
sg71
g4001
sg64
(lp4008
g57
(g78
g59
NtRp4009
(dp4010
g62
(dp4011
g82
g83
ssg71
g4005
sg64
(lp4012
S'session_id_repositorio'
p4013
asbag57
(g78
g59
NtRp4014
(dp4015
g62
(dp4016
g89
g90
ssg71
g4005
sg64
(lp4017
S':'
asbag57
(g78
g59
NtRp4018
(dp4019
g62
(dp4020
sg71
g4005
sg64
(lp4021
g57
(g58
g59
NtRp4022
(dp4023
g62
(dp4024
g70
I4
ssg71
g4018
sg64
(lp4025
S'127.0.0.1-55f3ad9f-a652-4eff-a904-cf59c2a890de'
p4026
ag57
(g66
g59
NtRp4027
(dp4028
g62
(dp4029
g70
I3
ssg71
Nsg64
(lp4030
g57
(g73
g59
NtRp4031
(dp4032
g62
(dp4033
sg71
g4027
sg64
(lp4034
g57
(g78
g59
NtRp4035
(dp4036
g62
(dp4037
g82
g83
ssg71
g4031
sg64
(lp4038
g294
asbag57
(g78
g59
NtRp4039
(dp4040
g62
(dp4041
g89
g90
ssg71
g4031
sg64
(lp4042
S':'
asbag57
(g78
g59
NtRp4043
(dp4044
g62
(dp4045
sg71
g4031
sg64
(lp4046
g57
(g58
g59
NtRp4047
(dp4048
g62
(dp4049
g70
I3
ssg71
g4043
sg64
(lp4050
S''
asbasbasbag57
(g73
g59
NtRp4051
(dp4052
g62
(dp4053
sg71
g4027
sg64
(lp4054
g57
(g78
g59
NtRp4055
(dp4056
g62
(dp4057
g82
g83
ssg71
g4051
sg64
(lp4058
g315
asbag57
(g78
g59
NtRp4059
(dp4060
g62
(dp4061
g89
g90
ssg71
g4051
sg64
(lp4062
S':'
asbag57
(g78
g59
NtRp4063
(dp4064
g62
(dp4065
sg71
g4051
sg64
(lp4066
g57
(g58
g59
NtRp4067
(dp4068
g62
(dp4069
g70
I3
ssg71
g4063
sg64
(lp4070
S''
asbasbasbag57
(g73
g59
NtRp4071
(dp4072
g62
(dp4073
sg71
g4027
sg64
(lp4074
g57
(g78
g59
NtRp4075
(dp4076
g62
(dp4077
g82
g83
ssg71
g4071
sg64
(lp4078
g336
asbag57
(g78
g59
NtRp4079
(dp4080
g62
(dp4081
g89
g90
ssg71
g4071
sg64
(lp4082
S':'
asbag57
(g78
g59
NtRp4083
(dp4084
g62
(dp4085
sg71
g4071
sg64
(lp4086
g57
(g58
g59
NtRp4087
(dp4088
g62
(dp4089
g70
I3
ssg71
g4083
sg64
(lp4090
S''
asbasbasbag57
(g73
g59
NtRp4091
(dp4092
g62
(dp4093
sg71
g4027
sg64
(lp4094
g57
(g78
g59
NtRp4095
(dp4096
g62
(dp4097
g82
g83
ssg71
g4091
sg64
(lp4098
g357
asbag57
(g78
g59
NtRp4099
(dp4100
g62
(dp4101
g89
g90
ssg71
g4091
sg64
(lp4102
S':'
asbag57
(g78
g59
NtRp4103
(dp4104
g62
(dp4105
sg71
g4091
sg64
(lp4106
g57
(g58
g59
NtRp4107
(dp4108
g62
(dp4109
g70
I3
ssg71
g4103
sg64
(lp4110
S''
asbasbasbag57
(g73
g59
NtRp4111
(dp4112
g62
(dp4113
sg71
g4027
sg64
(lp4114
g57
(g78
g59
NtRp4115
(dp4116
g62
(dp4117
g82
g83
ssg71
g4111
sg64
(lp4118
g378
asbag57
(g78
g59
NtRp4119
(dp4120
g62
(dp4121
g89
g90
ssg71
g4111
sg64
(lp4122
S':'
asbag57
(g78
g59
NtRp4123
(dp4124
g62
(dp4125
sg71
g4111
sg64
(lp4126
g57
(g58
g59
NtRp4127
(dp4128
g62
(dp4129
g70
I3
ssg71
g4123
sg64
(lp4130
S''
asbasbasbag57
(g73
g59
NtRp4131
(dp4132
g62
(dp4133
sg71
g4027
sg64
(lp4134
g57
(g78
g59
NtRp4135
(dp4136
g62
(dp4137
g82
g83
ssg71
g4131
sg64
(lp4138
g399
asbag57
(g78
g59
NtRp4139
(dp4140
g62
(dp4141
g89
g90
ssg71
g4131
sg64
(lp4142
S':'
asbag57
(g78
g59
NtRp4143
(dp4144
g62
(dp4145
sg71
g4131
sg64
(lp4146
g57
(g58
g59
NtRp4147
(dp4148
g62
(dp4149
g70
I3
ssg71
g4143
sg64
(lp4150
S'/'
asbasbasbag57
(g73
g59
NtRp4151
(dp4152
g62
(dp4153
sg71
g4027
sg64
(lp4154
g57
(g78
g59
NtRp4155
(dp4156
g62
(dp4157
g82
g83
ssg71
g4151
sg64
(lp4158
g420
asbag57
(g78
g59
NtRp4159
(dp4160
g62
(dp4161
g89
g90
ssg71
g4151
sg64
(lp4162
S':'
asbag57
(g78
g59
NtRp4163
(dp4164
g62
(dp4165
sg71
g4151
sg64
(lp4166
g57
(g58
g59
NtRp4167
(dp4168
g62
(dp4169
g70
I3
ssg71
g4163
sg64
(lp4170
S''
asbasbasbag57
(g73
g59
NtRp4171
(dp4172
g62
(dp4173
sg71
g4027
sg64
(lp4174
g57
(g78
g59
NtRp4175
(dp4176
g62
(dp4177
g82
g83
ssg71
g4171
sg64
(lp4178
g441
asbag57
(g78
g59
NtRp4179
(dp4180
g62
(dp4181
g89
g90
ssg71
g4171
sg64
(lp4182
S':'
asbag57
(g78
g59
NtRp4183
(dp4184
g62
(dp4185
sg71
g4171
sg64
(lp4186
g57
(g58
g59
NtRp4187
(dp4188
g62
(dp4189
g70
I3
ssg71
g4183
sg64
(lp4190
S''
asbasbasbasbasbasbasbasbasbasbasbag57
(g73
g59
NtRp4191
(dp4192
g62
(dp4193
sg71
g3956
sg64
(lp4194
g57
(g78
g59
NtRp4195
(dp4196
g62
(dp4197
g82
g83
ssg71
g4191
sg64
(lp4198
S'delimiters'
p4199
asbag57
(g78
g59
NtRp4200
(dp4201
g62
(dp4202
g89
g90
ssg71
g4191
sg64
(lp4203
S':'
asbag57
(g78
g59
NtRp4204
(dp4205
g62
(dp4206
sg71
g4191
sg64
(lp4207
g57
(g58
g59
NtRp4208
(dp4209
g62
(dp4210
g70
I5
ssg71
g4204
sg64
(lp4211
g57
(g66
g59
NtRp4212
(dp4213
g62
(dp4214
g70
I4
ssg71
Nsg64
(lp4215
g57
(g73
g59
NtRp4216
(dp4217
g62
(dp4218
sg71
g4212
sg64
(lp4219
g57
(g78
g59
NtRp4220
(dp4221
g62
(dp4222
sg71
g4216
sg64
(lp4223
g57
(g58
g59
NtRp4224
(dp4225
g62
(dp4226
g70
I4
ssg71
g4220
sg64
(lp4227
S'{{'
p4228
asbasbasbag57
(g73
g59
NtRp4229
(dp4230
g62
(dp4231
sg71
g4212
sg64
(lp4232
g57
(g78
g59
NtRp4233
(dp4234
g62
(dp4235
sg71
g4229
sg64
(lp4236
g57
(g58
g59
NtRp4237
(dp4238
g62
(dp4239
g70
I4
ssg71
g4233
sg64
(lp4240
S'}}'
p4241
asbasbasbasbasbasbasbag57
(g73
g59
NtRp4242
(dp4243
g62
(dp4244
sg71
g3956
sg64
(lp4245
g57
(g78
g59
NtRp4246
(dp4247
g62
(dp4248
g82
g83
ssg71
g4242
sg64
(lp4249
S'files'
p4250
asbag57
(g78
g59
NtRp4251
(dp4252
g62
(dp4253
g89
g90
ssg71
g4242
sg64
(lp4254
S':'
asbag57
(g78
g59
NtRp4255
(dp4256
g62
(dp4257
sg71
g4242
sg64
(lp4258
g57
(g58
g59
NtRp4259
(dp4260
g62
(dp4261
g70
I5
ssg71
g4255
sg64
(lp4262
g57
(g66
g59
NtRp4263
(dp4264
g62
(dp4265
g70
I4
ssg71
Nsg64
(lp4266
sbasbasbasbag57
(g73
g59
NtRp4267
(dp4268
g62
(dp4269
sg71
g3956
sg64
(lp4270
g57
(g78
g59
NtRp4271
(dp4272
g62
(dp4273
g82
g83
ssg71
g4267
sg64
(lp4274
S'flash'
p4275
asbag57
(g78
g59
NtRp4276
(dp4277
g62
(dp4278
g89
g90
ssg71
g4267
sg64
(lp4279
S':'
asbag57
(g78
g59
NtRp4280
(dp4281
g62
(dp4282
sg71
g4267
sg64
(lp4283
g57
(g58
g59
NtRp4284
(dp4285
g62
(dp4286
g70
I5
ssg71
g4280
sg64
(lp4287
S''
asbasbasbag57
(g73
g59
NtRp4288
(dp4289
g62
(dp4290
sg71
g3956
sg64
(lp4291
g57
(g78
g59
NtRp4292
(dp4293
g62
(dp4294
g82
g83
ssg71
g4288
sg64
(lp4295
S'generic_patterns'
p4296
asbag57
(g78
g59
NtRp4297
(dp4298
g62
(dp4299
g89
g90
ssg71
g4288
sg64
(lp4300
S':'
asbag57
(g78
g59
NtRp4301
(dp4302
g62
(dp4303
sg71
g4288
sg64
(lp4304
g57
(g58
g59
NtRp4305
(dp4306
g62
(dp4307
g70
I5
ssg71
g4301
sg64
(lp4308
g57
(g66
g59
NtRp4309
(dp4310
g62
(dp4311
g70
I4
ssg71
Nsg64
(lp4312
sbasbasbasbag57
(g73
g59
NtRp4313
(dp4314
g62
(dp4315
sg71
g3956
sg64
(lp4316
g57
(g78
g59
NtRp4317
(dp4318
g62
(dp4319
g82
g83
ssg71
g4313
sg64
(lp4320
S'headers'
p4321
asbag57
(g78
g59
NtRp4322
(dp4323
g62
(dp4324
g89
g90
ssg71
g4313
sg64
(lp4325
S':'
asbag57
(g78
g59
NtRp4326
(dp4327
g62
(dp4328
sg71
g4313
sg64
(lp4329
g57
(g58
g59
NtRp4330
(dp4331
g62
(dp4332
g70
I5
ssg71
g4326
sg64
(lp4333
g57
(g66
g59
NtRp4334
(dp4335
g62
(dp4336
g70
I4
ssg71
Nsg64
(lp4337
g57
(g73
g59
NtRp4338
(dp4339
g62
(dp4340
sg71
g4334
sg64
(lp4341
g57
(g78
g59
NtRp4342
(dp4343
g62
(dp4344
g82
g83
ssg71
g4338
sg64
(lp4345
S'X-Powered-By'
p4346
asbag57
(g78
g59
NtRp4347
(dp4348
g62
(dp4349
g89
g90
ssg71
g4338
sg64
(lp4350
S':'
asbag57
(g78
g59
NtRp4351
(dp4352
g62
(dp4353
sg71
g4338
sg64
(lp4354
g57
(g58
g59
NtRp4355
(dp4356
g62
(dp4357
g70
I4
ssg71
g4351
sg64
(lp4358
S'web2py'
p4359
asbasbasbasbasbasbasbag57
(g73
g59
NtRp4360
(dp4361
g62
(dp4362
sg71
g3956
sg64
(lp4363
g57
(g78
g59
NtRp4364
(dp4365
g62
(dp4366
g82
g83
ssg71
g4360
sg64
(lp4367
S'menu'
p4368
asbag57
(g78
g59
NtRp4369
(dp4370
g62
(dp4371
g89
g90
ssg71
g4360
sg64
(lp4372
S':'
asbag57
(g78
g59
NtRp4373
(dp4374
g62
(dp4375
sg71
g4360
sg64
(lp4376
g57
(g58
g59
NtRp4377
(dp4378
g62
(dp4379
g70
I5
ssg71
g4373
sg64
(lp4380
g57
(g66
g59
NtRp4381
(dp4382
g62
(dp4383
g70
I4
ssg71
Nsg64
(lp4384
g57
(g73
g59
NtRp4385
(dp4386
g62
(dp4387
sg71
g4381
sg64
(lp4388
g57
(g78
g59
NtRp4389
(dp4390
g62
(dp4391
sg71
g4385
sg64
(lp4392
g57
(g58
g59
NtRp4393
(dp4394
g62
(dp4395
g70
I4
ssg71
g4389
sg64
(lp4396
g57
(g66
g59
NtRp4397
(dp4398
g62
(dp4399
g70
I3
ssg71
Nsg64
(lp4400
g57
(g73
g59
NtRp4401
(dp4402
g62
(dp4403
sg71
g4397
sg64
(lp4404
g57
(g78
g59
NtRp4405
(dp4406
g62
(dp4407
sg71
g4401
sg64
(lp4408
g57
(g58
g59
NtRp4409
(dp4410
g62
(dp4411
g70
I3
ssg71
g4405
sg64
(lp4412
cgluon.languages
lazyT_unpickle
p4413
(S's\x05\x00\x00\x00Login'
tRp4414
asbasbasbag57
(g73
g59
NtRp4415
(dp4416
g62
(dp4417
sg71
g4397
sg64
(lp4418
g57
(g78
g59
NtRp4419
(dp4420
g62
(dp4421
sg71
g4415
sg64
(lp4422
g57
(g58
g59
NtRp4423
(dp4424
g62
(dp4425
g70
I3
ssg71
g4419
sg64
(lp4426
g100
asbasbasbag57
(g73
g59
NtRp4427
(dp4428
g62
(dp4429
sg71
g4397
sg64
(lp4430
g57
(g78
g59
NtRp4431
(dp4432
g62
(dp4433
sg71
g4427
sg64
(lp4434
g57
(g58
g59
NtRp4435
(dp4436
g62
(dp4437
g70
I3
ssg71
g4431
sg64
(lp4438
S'/repositorio/person/account/login'
p4439
asbasbasbag57
(g73
g59
NtRp4440
(dp4441
g62
(dp4442
sg71
g4397
sg64
(lp4443
g57
(g78
g59
NtRp4444
(dp4445
g62
(dp4446
sg71
g4440
sg64
(lp4447
g57
(g58
g59
NtRp4448
(dp4449
g62
(dp4450
g70
I3
ssg71
g4444
sg64
(lp4451
g57
(g66
g59
NtRp4452
(dp4453
g62
(dp4454
g70
I2
ssg71
Nsg64
(lp4455
sbasbasbasbasbasbasbasbag57
(g73
g59
NtRp4456
(dp4457
g62
(dp4458
sg71
g4381
sg64
(lp4459
g57
(g78
g59
NtRp4460
(dp4461
g62
(dp4462
sg71
g4456
sg64
(lp4463
g57
(g58
g59
NtRp4464
(dp4465
g62
(dp4466
g70
I4
ssg71
g4460
sg64
(lp4467
g57
(g66
g59
NtRp4468
(dp4469
g62
(dp4470
g70
I3
ssg71
Nsg64
(lp4471
g57
(g73
g59
NtRp4472
(dp4473
g62
(dp4474
sg71
g4468
sg64
(lp4475
g57
(g78
g59
NtRp4476
(dp4477
g62
(dp4478
sg71
g4472
sg64
(lp4479
g57
(g58
g59
NtRp4480
(dp4481
g62
(dp4482
g70
I3
ssg71
g4476
sg64
(lp4483
g4413
(S's\x04\x00\x00\x00Join'
tRp4484
asbasbasbag57
(g73
g59
NtRp4485
(dp4486
g62
(dp4487
sg71
g4468
sg64
(lp4488
g57
(g78
g59
NtRp4489
(dp4490
g62
(dp4491
sg71
g4485
sg64
(lp4492
g57
(g58
g59
NtRp4493
(dp4494
g62
(dp4495
g70
I3
ssg71
g4489
sg64
(lp4496
g100
asbasbasbag57
(g73
g59
NtRp4497
(dp4498
g62
(dp4499
sg71
g4468
sg64
(lp4500
g57
(g78
g59
NtRp4501
(dp4502
g62
(dp4503
sg71
g4497
sg64
(lp4504
g57
(g58
g59
NtRp4505
(dp4506
g62
(dp4507
g70
I3
ssg71
g4501
sg64
(lp4508
S'/repositorio/person/account/register'
p4509
asbasbasbag57
(g73
g59
NtRp4510
(dp4511
g62
(dp4512
sg71
g4468
sg64
(lp4513
g57
(g78
g59
NtRp4514
(dp4515
g62
(dp4516
sg71
g4510
sg64
(lp4517
g57
(g58
g59
NtRp4518
(dp4519
g62
(dp4520
g70
I3
ssg71
g4514
sg64
(lp4521
g57
(g66
g59
NtRp4522
(dp4523
g62
(dp4524
g70
I2
ssg71
Nsg64
(lp4525
sbasbasbasbasbasbasbasbag57
(g73
g59
NtRp4526
(dp4527
g62
(dp4528
sg71
g4381
sg64
(lp4529
g57
(g78
g59
NtRp4530
(dp4531
g62
(dp4532
sg71
g4526
sg64
(lp4533
g57
(g58
g59
NtRp4534
(dp4535
g62
(dp4536
g70
I4
ssg71
g4530
sg64
(lp4537
g57
(g66
g59
NtRp4538
(dp4539
g62
(dp4540
g70
I3
ssg71
Nsg64
(lp4541
g57
(g73
g59
NtRp4542
(dp4543
g62
(dp4544
sg71
g4538
sg64
(lp4545
g57
(g78
g59
NtRp4546
(dp4547
g62
(dp4548
sg71
g4542
sg64
(lp4549
g57
(g58
g59
NtRp4550
(dp4551
g62
(dp4552
g70
I3
ssg71
g4546
sg64
(lp4553
g4413
(S's\x06\x00\x00\x00GitHub'
tRp4554
asbasbasbag57
(g73
g59
NtRp4555
(dp4556
g62
(dp4557
sg71
g4538
sg64
(lp4558
g57
(g78
g59
NtRp4559
(dp4560
g62
(dp4561
sg71
g4555
sg64
(lp4562
g57
(g58
g59
NtRp4563
(dp4564
g62
(dp4565
g70
I3
ssg71
g4559
sg64
(lp4566
g100
asbasbasbag57
(g73
g59
NtRp4567
(dp4568
g62
(dp4569
sg71
g4538
sg64
(lp4570
g57
(g78
g59
NtRp4571
(dp4572
g62
(dp4573
sg71
g4567
sg64
(lp4574
g57
(g58
g59
NtRp4575
(dp4576
g62
(dp4577
g70
I3
ssg71
g4571
sg64
(lp4578
S'http://github.com/rochacbruno/Movuca'
p4579
asbasbasbag57
(g73
g59
NtRp4580
(dp4581
g62
(dp4582
sg71
g4538
sg64
(lp4583
g57
(g78
g59
NtRp4584
(dp4585
g62
(dp4586
sg71
g4580
sg64
(lp4587
g57
(g58
g59
NtRp4588
(dp4589
g62
(dp4590
g70
I3
ssg71
g4584
sg64
(lp4591
g57
(g66
g59
NtRp4592
(dp4593
g62
(dp4594
g70
I2
ssg71
Nsg64
(lp4595
sbasbasbasbasbasbasbasbasbasbasbasbag57
(g73
g59
NtRp4596
(dp4597
g62
(dp4598
sg71
g3956
sg64
(lp4599
g57
(g78
g59
NtRp4600
(dp4601
g62
(dp4602
g82
g83
ssg71
g4596
sg64
(lp4603
S'meta'
p4604
asbag57
(g78
g59
NtRp4605
(dp4606
g62
(dp4607
g89
g90
ssg71
g4596
sg64
(lp4608
S':'
asbag57
(g78
g59
NtRp4609
(dp4610
g62
(dp4611
sg71
g4596
sg64
(lp4612
g57
(g58
g59
NtRp4613
(dp4614
g62
(dp4615
g70
I5
ssg71
g4609
sg64
(lp4616
g57
(g66
g59
NtRp4617
(dp4618
g62
(dp4619
g70
I4
ssg71
Nsg64
(lp4620
g57
(g73
g59
NtRp4621
(dp4622
g62
(dp4623
sg71
g4617
sg64
(lp4624
g57
(g78
g59
NtRp4625
(dp4626
g62
(dp4627
g82
g83
ssg71
g4621
sg64
(lp4628
S'description'
p4629
asbag57
(g78
g59
NtRp4630
(dp4631
g62
(dp4632
g89
g90
ssg71
g4621
sg64
(lp4633
S':'
asbag57
(g78
g59
NtRp4634
(dp4635
g62
(dp4636
sg71
g4621
sg64
(lp4637
g57
(g58
g59
NtRp4638
(dp4639
g62
(dp4640
g70
I4
ssg71
g4634
sg64
(lp4641
S'Culin\xc3\xa1ria vegetariana para todos!'
p4642
asbasbasbag57
(g73
g59
NtRp4643
(dp4644
g62
(dp4645
sg71
g4617
sg64
(lp4646
g57
(g78
g59
NtRp4647
(dp4648
g62
(dp4649
g82
g83
ssg71
g4643
sg64
(lp4650
S'og_images'
p4651
asbag57
(g78
g59
NtRp4652
(dp4653
g62
(dp4654
g89
g90
ssg71
g4643
sg64
(lp4655
S':'
asbag57
(g78
g59
NtRp4656
(dp4657
g62
(dp4658
sg71
g4643
sg64
(lp4659
g57
(g58
g59
NtRp4660
(dp4661
g62
(dp4662
g70
I4
ssg71
g4656
sg64
(lp4663
g57
(g66
g59
NtRp4664
(dp4665
g62
(dp4666
g70
I3
ssg71
Nsg64
(lp4667
sbasbasbasbag57
(g73
g59
NtRp4668
(dp4669
g62
(dp4670
sg71
g4617
sg64
(lp4671
g57
(g78
g59
NtRp4672
(dp4673
g62
(dp4674
g82
g83
ssg71
g4668
sg64
(lp4675
S'og_type'
p4676
asbag57
(g78
g59
NtRp4677
(dp4678
g62
(dp4679
g89
g90
ssg71
g4668
sg64
(lp4680
S':'
asbag57
(g78
g59
NtRp4681
(dp4682
g62
(dp4683
sg71
g4668
sg64
(lp4684
g57
(g58
g59
NtRp4685
(dp4686
g62
(dp4687
g70
I4
ssg71
g4681
sg64
(lp4688
S'website'
p4689
asbasbasbag57
(g73
g59
NtRp4690
(dp4691
g62
(dp4692
sg71
g4617
sg64
(lp4693
g57
(g78
g59
NtRp4694
(dp4695
g62
(dp4696
g82
g83
ssg71
g4690
sg64
(lp4697
S'og_url'
p4698
asbag57
(g78
g59
NtRp4699
(dp4700
g62
(dp4701
g89
g90
ssg71
g4690
sg64
(lp4702
S':'
asbag57
(g78
g59
NtRp4703
(dp4704
g62
(dp4705
sg71
g4690
sg64
(lp4706
g57
(g58
g59
NtRp4707
(dp4708
g62
(dp4709
g70
I4
ssg71
g4703
sg64
(lp4710
S'http://www.menuvegano.com.br'
p4711
asbasbasbag57
(g73
g59
NtRp4712
(dp4713
g62
(dp4714
sg71
g4617
sg64
(lp4715
g57
(g78
g59
NtRp4716
(dp4717
g62
(dp4718
g82
g83
ssg71
g4712
sg64
(lp4719
S'title'
p4720
asbag57
(g78
g59
NtRp4721
(dp4722
g62
(dp4723
g89
g90
ssg71
g4712
sg64
(lp4724
S':'
asbag57
(g78
g59
NtRp4725
(dp4726
g62
(dp4727
sg71
g4712
sg64
(lp4728
g57
(g58
g59
NtRp4729
(dp4730
g62
(dp4731
g70
I4
ssg71
g4725
sg64
(lp4732
S'Movuca'
p4733
asbasbasbasbasbasbasbag57
(g73
g59
NtRp4734
(dp4735
g62
(dp4736
sg71
g3956
sg64
(lp4737
g57
(g78
g59
NtRp4738
(dp4739
g62
(dp4740
g82
g83
ssg71
g4734
sg64
(lp4741
S'models_to_run'
p4742
asbag57
(g78
g59
NtRp4743
(dp4744
g62
(dp4745
g89
g90
ssg71
g4734
sg64
(lp4746
S':'
asbag57
(g78
g59
NtRp4747
(dp4748
g62
(dp4749
sg71
g4734
sg64
(lp4750
g57
(g58
g59
NtRp4751
(dp4752
g62
(dp4753
g70
I5
ssg71
g4747
sg64
(lp4754
g57
(g66
g59
NtRp4755
(dp4756
g62
(dp4757
g70
I4
ssg71
Nsg64
(lp4758
g57
(g73
g59
NtRp4759
(dp4760
g62
(dp4761
sg71
g4755
sg64
(lp4762
g57
(g78
g59
NtRp4763
(dp4764
g62
(dp4765
sg71
g4759
sg64
(lp4766
g57
(g58
g59
NtRp4767
(dp4768
g62
(dp4769
g70
I4
ssg71
g4763
sg64
(lp4770
S'^\\w+\\.py$'
p4771
asbasbasbag57
(g73
g59
NtRp4772
(dp4773
g62
(dp4774
sg71
g4755
sg64
(lp4775
g57
(g78
g59
NtRp4776
(dp4777
g62
(dp4778
sg71
g4772
sg64
(lp4779
g57
(g58
g59
NtRp4780
(dp4781
g62
(dp4782
g70
I4
ssg71
g4776
sg64
(lp4783
S'^default/\\w+\\.py$'
p4784
asbasbasbag57
(g73
g59
NtRp4785
(dp4786
g62
(dp4787
sg71
g4755
sg64
(lp4788
g57
(g78
g59
NtRp4789
(dp4790
g62
(dp4791
sg71
g4785
sg64
(lp4792
g57
(g58
g59
NtRp4793
(dp4794
g62
(dp4795
g70
I4
ssg71
g4789
sg64
(lp4796
S'^default/index/\\w+\\.py$'
p4797
asbasbasbasbasbasbasbag57
(g73
g59
NtRp4798
(dp4799
g62
(dp4800
sg71
g3956
sg64
(lp4801
g57
(g78
g59
NtRp4802
(dp4803
g62
(dp4804
g82
g83
ssg71
g4798
sg64
(lp4805
S'postprocessing'
p4806
asbag57
(g78
g59
NtRp4807
(dp4808
g62
(dp4809
g89
g90
ssg71
g4798
sg64
(lp4810
S':'
asbag57
(g78
g59
NtRp4811
(dp4812
g62
(dp4813
sg71
g4798
sg64
(lp4814
g57
(g58
g59
NtRp4815
(dp4816
g62
(dp4817
g70
I5
ssg71
g4811
sg64
(lp4818
g57
(g66
g59
NtRp4819
(dp4820
g62
(dp4821
g70
I4
ssg71
Nsg64
(lp4822
sbasbasbasbag57
(g73
g59
NtRp4823
(dp4824
g62
(dp4825
sg71
g3956
sg64
(lp4826
g57
(g78
g59
NtRp4827
(dp4828
g62
(dp4829
g82
g83
ssg71
g4823
sg64
(lp4830
S'session_cookie_expires'
p4831
asbag57
(g78
g59
NtRp4832
(dp4833
g62
(dp4834
g89
g90
ssg71
g4823
sg64
(lp4835
S':'
asbag57
(g78
g59
NtRp4836
(dp4837
g62
(dp4838
sg71
g4823
sg64
(lp4839
g57
(g58
g59
NtRp4840
(dp4841
g62
(dp4842
g70
I5
ssg71
g4836
sg64
(lp4843
S'None'
p4844
asbasbasbag57
(g73
g59
NtRp4845
(dp4846
g62
(dp4847
sg71
g3956
sg64
(lp4848
g57
(g78
g59
NtRp4849
(dp4850
g62
(dp4851
g82
g83
ssg71
g4845
sg64
(lp4852
S'session_data_name'
p4853
asbag57
(g78
g59
NtRp4854
(dp4855
g62
(dp4856
g89
g90
ssg71
g4845
sg64
(lp4857
S':'
asbag57
(g78
g59
NtRp4858
(dp4859
g62
(dp4860
sg71
g4845
sg64
(lp4861
g57
(g58
g59
NtRp4862
(dp4863
g62
(dp4864
g70
I5
ssg71
g4858
sg64
(lp4865
S'session_data_repositorio'
p4866
asbasbasbag57
(g73
g59
NtRp4867
(dp4868
g62
(dp4869
sg71
g3956
sg64
(lp4870
g57
(g78
g59
NtRp4871
(dp4872
g62
(dp4873
g82
g83
ssg71
g4867
sg64
(lp4874
S'session_filename'
p4875
asbag57
(g78
g59
NtRp4876
(dp4877
g62
(dp4878
g89
g90
ssg71
g4867
sg64
(lp4879
S':'
asbag57
(g78
g59
NtRp4880
(dp4881
g62
(dp4882
sg71
g4867
sg64
(lp4883
g57
(g58
g59
NtRp4884
(dp4885
g62
(dp4886
g70
I5
ssg71
g4880
sg64
(lp4887
S'/home/python/P\xc3\xbablico/web2py/web2py/applications/repositorio/sessions/127.0.0.1-55f3ad9f-a652-4eff-a904-cf59c2a890de'
p4888
asbasbasbag57
(g73
g59
NtRp4889
(dp4890
g62
(dp4891
sg71
g3956
sg64
(lp4892
g57
(g78
g59
NtRp4893
(dp4894
g62
(dp4895
g82
g83
ssg71
g4889
sg64
(lp4896
S'session_id'
p4897
asbag57
(g78
g59
NtRp4898
(dp4899
g62
(dp4900
g89
g90
ssg71
g4889
sg64
(lp4901
S':'
asbag57
(g78
g59
NtRp4902
(dp4903
g62
(dp4904
sg71
g4889
sg64
(lp4905
g57
(g58
g59
NtRp4906
(dp4907
g62
(dp4908
g70
I5
ssg71
g4902
sg64
(lp4909
g4026
asbasbasbag57
(g73
g59
NtRp4910
(dp4911
g62
(dp4912
sg71
g3956
sg64
(lp4913
g57
(g78
g59
NtRp4914
(dp4915
g62
(dp4916
g82
g83
ssg71
g4910
sg64
(lp4917
S'session_id_name'
p4918
asbag57
(g78
g59
NtRp4919
(dp4920
g62
(dp4921
g89
g90
ssg71
g4910
sg64
(lp4922
S':'
asbag57
(g78
g59
NtRp4923
(dp4924
g62
(dp4925
sg71
g4910
sg64
(lp4926
g57
(g58
g59
NtRp4927
(dp4928
g62
(dp4929
g70
I5
ssg71
g4923
sg64
(lp4930
g4013
asbasbasbag57
(g73
g59
NtRp4931
(dp4932
g62
(dp4933
sg71
g3956
sg64
(lp4934
g57
(g78
g59
NtRp4935
(dp4936
g62
(dp4937
g82
g83
ssg71
g4931
sg64
(lp4938
S'session_new'
p4939
asbag57
(g78
g59
NtRp4940
(dp4941
g62
(dp4942
g89
g90
ssg71
g4931
sg64
(lp4943
S':'
asbag57
(g78
g59
NtRp4944
(dp4945
g62
(dp4946
sg71
g4931
sg64
(lp4947
g57
(g58
g59
NtRp4948
(dp4949
g62
(dp4950
g70
I5
ssg71
g4944
sg64
(lp4951
g2326
asbasbasbag57
(g73
g59
NtRp4952
(dp4953
g62
(dp4954
sg71
g3956
sg64
(lp4955
g57
(g78
g59
NtRp4956
(dp4957
g62
(dp4958
g82
g83
ssg71
g4952
sg64
(lp4959
S'session_storage_type'
p4960
asbag57
(g78
g59
NtRp4961
(dp4962
g62
(dp4963
g89
g90
ssg71
g4952
sg64
(lp4964
S':'
asbag57
(g78
g59
NtRp4965
(dp4966
g62
(dp4967
sg71
g4952
sg64
(lp4968
g57
(g58
g59
NtRp4969
(dp4970
g62
(dp4971
g70
I5
ssg71
g4965
sg64
(lp4972
g3757
asbasbasbag57
(g73
g59
NtRp4973
(dp4974
g62
(dp4975
sg71
g3956
sg64
(lp4976
g57
(g78
g59
NtRp4977
(dp4978
g62
(dp4979
g82
g83
ssg71
g4973
sg64
(lp4980
S'status'
p4981
asbag57
(g78
g59
NtRp4982
(dp4983
g62
(dp4984
g89
g90
ssg71
g4973
sg64
(lp4985
S':'
asbag57
(g78
g59
NtRp4986
(dp4987
g62
(dp4988
sg71
g4973
sg64
(lp4989
g57
(g58
g59
NtRp4990
(dp4991
g62
(dp4992
g70
I5
ssg71
g4986
sg64
(lp4993
S'200'
p4994
asbasbasbag57
(g73
g59
NtRp4995
(dp4996
g62
(dp4997
sg71
g3956
sg64
(lp4998
g57
(g78
g59
NtRp4999
(dp5000
g62
(dp5001
g82
g83
ssg71
g4995
sg64
(lp5002
S'view'
p5003
asbag57
(g78
g59
NtRp5004
(dp5005
g62
(dp5006
g89
g90
ssg71
g4995
sg64
(lp5007
S':'
asbag57
(g78
g59
NtRp5008
(dp5009
g62
(dp5010
sg71
g4995
sg64
(lp5011
g57
(g58
g59
NtRp5012
(dp5013
g62
(dp5014
g70
I5
ssg71
g5008
sg64
(lp5015
S'default/index.html'
p5016
asbasbasbasbasbsS'locals'
p5017
(dp5018
S'current'
p5019
S'<thread._local object>'
p5020
sS'self'
p5021
S'<DAL db_uid="613140a5ee924e39b9bd2357487433cd">'
p5022
sS'classes'
p5023
S"[<class 'applications.repositorio.modules.movuca.Access'>, <class 'applications.repositorio.modules.datamodel.article.ContentType'>, <class 'applications.repositorio.modules.datamodel.article.Category'>, <class 'applications.repositorio.modules.datamodel.article.Article'>, <class 'applications.repositorio.modules.datamodel.ads.Ads'>, <class 'applications.repositorio.modules.datamodel.page.Page'>]"
p5024
sS'Config'
p5025
S"<class 'applications.repositorio.modules.config.Config'>"
p5026
sssS'traceback'
p5027
S'Traceback (most recent call last):\n  File "/home/python/P\xc3\xbablico/web2py/web2py/gluon/restricted.py", line 212, in restricted\n    exec ccode in environment\n  File "/home/python/P\xc3\xbablico/web2py/web2py/applications/repositorio/controllers/default.py", line 90, in <module>\n  File "/home/python/P\xc3\xbablico/web2py/web2py/gluon/globals.py", line 193, in <lambda>\n    self._caller = lambda f: f()\n  File "/home/python/P\xc3\xbablico/web2py/web2py/applications/repositorio/controllers/default.py", line 18, in index\n    home = Home([\'featured\', \'featured_members\', \'ads\', \'homeblocks\', \'articles\'])\n  File "applications/repositorio/modules/handlers/base.py", line 32, in __init__\n    self.start()\n  File "applications/repositorio/modules/handlers/home.py", line 12, in start\n    self.db = DataBase([User, ContentType, Category, Article, Ads, Page])\n  File "applications/repositorio/modules/movuca.py", line 35, in __init__\n    DAL.__init__(self, self.config.db.uri,\nAttributeError: \'NoneType\' object has no attribute \'uri\'\n'
p5028
s.